Archive member included to satisfy reference by file (symbol)

c:/altera/16.0/nios2eds/bin/gnu/h-x86_64-mingw32/bin/../lib/gcc/nios2-elf/5.2.0/mno-hw-mul\libgcc.a(_fixunssfsi.o)
                              obj/default/types.o (__fixunssfsi)
c:/altera/16.0/nios2eds/bin/gnu/h-x86_64-mingw32/bin/../lib/gcc/nios2-elf/5.2.0/mno-hw-mul\libgcc.a(lib2-divmod.o)
                              obj/default/main.o (__modsi3)
c:/altera/16.0/nios2eds/bin/gnu/h-x86_64-mingw32/bin/../lib/gcc/nios2-elf/5.2.0/mno-hw-mul\libgcc.a(addsf3.o)
                              obj/default/formula.o (__addsf3)
c:/altera/16.0/nios2eds/bin/gnu/h-x86_64-mingw32/bin/../lib/gcc/nios2-elf/5.2.0/mno-hw-mul\libgcc.a(divsf3.o)
                              obj/default/main.o (__divsf3)
c:/altera/16.0/nios2eds/bin/gnu/h-x86_64-mingw32/bin/../lib/gcc/nios2-elf/5.2.0/mno-hw-mul\libgcc.a(eqsf2.o)
                              obj/default/main.o (__eqsf2)
c:/altera/16.0/nios2eds/bin/gnu/h-x86_64-mingw32/bin/../lib/gcc/nios2-elf/5.2.0/mno-hw-mul\libgcc.a(gesf2.o)
                              obj/default/main.o (__gesf2)
c:/altera/16.0/nios2eds/bin/gnu/h-x86_64-mingw32/bin/../lib/gcc/nios2-elf/5.2.0/mno-hw-mul\libgcc.a(lesf2.o)
                              obj/default/types.o (__ltsf2)
c:/altera/16.0/nios2eds/bin/gnu/h-x86_64-mingw32/bin/../lib/gcc/nios2-elf/5.2.0/mno-hw-mul\libgcc.a(mulsf3.o)
                              obj/default/formula.o (__mulsf3)
c:/altera/16.0/nios2eds/bin/gnu/h-x86_64-mingw32/bin/../lib/gcc/nios2-elf/5.2.0/mno-hw-mul\libgcc.a(subsf3.o)
                              obj/default/formula.o (__subsf3)
c:/altera/16.0/nios2eds/bin/gnu/h-x86_64-mingw32/bin/../lib/gcc/nios2-elf/5.2.0/mno-hw-mul\libgcc.a(fixsfsi.o)
                              c:/altera/16.0/nios2eds/bin/gnu/h-x86_64-mingw32/bin/../lib/gcc/nios2-elf/5.2.0/mno-hw-mul\libgcc.a(_fixunssfsi.o) (__fixsfsi)
c:/altera/16.0/nios2eds/bin/gnu/h-x86_64-mingw32/bin/../lib/gcc/nios2-elf/5.2.0/mno-hw-mul\libgcc.a(floatsisf.o)
                              obj/default/main.o (__floatsisf)
c:/altera/16.0/nios2eds/bin/gnu/h-x86_64-mingw32/bin/../lib/gcc/nios2-elf/5.2.0/mno-hw-mul\libgcc.a(floatunsisf.o)
                              obj/default/main.o (__floatunsisf)
c:/altera/16.0/nios2eds/bin/gnu/h-x86_64-mingw32/bin/../lib/gcc/nios2-elf/5.2.0/mno-hw-mul\libgcc.a(adddf3.o)
                              obj/default/formula.o (__adddf3)
c:/altera/16.0/nios2eds/bin/gnu/h-x86_64-mingw32/bin/../lib/gcc/nios2-elf/5.2.0/mno-hw-mul\libgcc.a(divdf3.o)
                              obj/default/formula.o (__divdf3)
c:/altera/16.0/nios2eds/bin/gnu/h-x86_64-mingw32/bin/../lib/gcc/nios2-elf/5.2.0/mno-hw-mul\libgcc.a(ledf2.o)
                              obj/default/main.o (__ltdf2)
c:/altera/16.0/nios2eds/bin/gnu/h-x86_64-mingw32/bin/../lib/gcc/nios2-elf/5.2.0/mno-hw-mul\libgcc.a(muldf3.o)
                              obj/default/types.o (__muldf3)
c:/altera/16.0/nios2eds/bin/gnu/h-x86_64-mingw32/bin/../lib/gcc/nios2-elf/5.2.0/mno-hw-mul\libgcc.a(subdf3.o)
                              obj/default/types.o (__subdf3)
c:/altera/16.0/nios2eds/bin/gnu/h-x86_64-mingw32/bin/../lib/gcc/nios2-elf/5.2.0/mno-hw-mul\libgcc.a(extendsfdf2.o)
                              obj/default/formula.o (__extendsfdf2)
c:/altera/16.0/nios2eds/bin/gnu/h-x86_64-mingw32/bin/../lib/gcc/nios2-elf/5.2.0/mno-hw-mul\libgcc.a(truncdfsf2.o)
                              obj/default/formula.o (__truncdfsf2)
c:/altera/16.0/nios2eds/bin/gnu/h-x86_64-mingw32/bin/../lib/gcc/nios2-elf/5.2.0/mno-hw-mul\libgcc.a(_clzsi2.o)
                              c:/altera/16.0/nios2eds/bin/gnu/h-x86_64-mingw32/bin/../lib/gcc/nios2-elf/5.2.0/mno-hw-mul\libgcc.a(addsf3.o) (__clzsi2)
c:/altera/16.0/nios2eds/bin/gnu/h-x86_64-mingw32/bin/../lib/gcc/nios2-elf/5.2.0/mno-hw-mul\libgcc.a(lib2-mul.o)
                              c:/altera/16.0/nios2eds/bin/gnu/h-x86_64-mingw32/bin/../lib/gcc/nios2-elf/5.2.0/mno-hw-mul\libgcc.a(mulsf3.o) (__mulsi3)
c:/altera/16.0/nios2eds/bin/gnu/h-x86_64-mingw32/bin/../lib/gcc/nios2-elf/5.2.0/mno-hw-mul\libgcc.a(_clz.o)
                              c:/altera/16.0/nios2eds/bin/gnu/h-x86_64-mingw32/bin/../lib/gcc/nios2-elf/5.2.0/mno-hw-mul\libgcc.a(_clzsi2.o) (__clz_tab)
../neural_bsp//newlib/nios2-elf/lib\libc.a(lib_a-atoi.o)
                              obj/default/main.o (atoi)
../neural_bsp//newlib/nios2-elf/lib\libc.a(lib_a-calloc.o)
                              obj/default/types.o (calloc)
../neural_bsp//newlib/nios2-elf/lib\libc.a(lib_a-callocr.o)
                              ../neural_bsp//newlib/nios2-elf/lib\libc.a(lib_a-calloc.o) (_calloc_r)
../neural_bsp//newlib/nios2-elf/lib\libc.a(lib_a-drand48.o)
                              obj/default/types.o (drand48)
../neural_bsp//newlib/nios2-elf/lib\libc.a(lib_a-erand48.o)
                              ../neural_bsp//newlib/nios2-elf/lib\libc.a(lib_a-drand48.o) (_erand48_r)
../neural_bsp//newlib/nios2-elf/lib\libc.a(lib_a-getc.o)
                              obj/default/main.o (getc)
../neural_bsp//newlib/nios2-elf/lib\libc.a(lib_a-impure.o)
                              obj/default/main.o (_impure_ptr)
../neural_bsp//newlib/nios2-elf/lib\libc.a(lib_a-malloc.o)
                              obj/default/types.o (malloc)
../neural_bsp//newlib/nios2-elf/lib\libc.a(lib_a-mallocr.o)
                              ../neural_bsp//newlib/nios2-elf/lib\libc.a(lib_a-callocr.o) (_malloc_r)
../neural_bsp//newlib/nios2-elf/lib\libc.a(lib_a-memset.o)
                              ../neural_bsp//newlib/nios2-elf/lib\libc.a(lib_a-callocr.o) (memset)
../neural_bsp//newlib/nios2-elf/lib\libc.a(lib_a-printf.o)
                              obj/default/formula.o (printf)
../neural_bsp//newlib/nios2-elf/lib\libc.a(lib_a-putchar.o)
                              obj/default/formula.o (putchar)
../neural_bsp//newlib/nios2-elf/lib\libc.a(lib_a-puts.o)
                              obj/default/formula.o (puts)
../neural_bsp//newlib/nios2-elf/lib\libc.a(lib_a-rand48.o)
                              ../neural_bsp//newlib/nios2-elf/lib\libc.a(lib_a-erand48.o) (__dorand48)
../neural_bsp//newlib/nios2-elf/lib\libc.a(lib_a-realloc.o)
                              obj/default/types.o (realloc)
../neural_bsp//newlib/nios2-elf/lib\libc.a(lib_a-reallocr.o)
                              ../neural_bsp//newlib/nios2-elf/lib\libc.a(lib_a-realloc.o) (_realloc_r)
../neural_bsp//newlib/nios2-elf/lib\libc.a(lib_a-rget.o)
                              ../neural_bsp//newlib/nios2-elf/lib\libc.a(lib_a-getc.o) (__srget_r)
../neural_bsp//newlib/nios2-elf/lib\libc.a(lib_a-s_ldexp.o)
                              ../neural_bsp//newlib/nios2-elf/lib\libc.a(lib_a-erand48.o) (ldexp)
../neural_bsp//newlib/nios2-elf/lib\libc.a(lib_a-s_scalbn.o)
                              ../neural_bsp//newlib/nios2-elf/lib\libc.a(lib_a-s_ldexp.o) (scalbn)
../neural_bsp//newlib/nios2-elf/lib\libc.a(lib_a-sbrkr.o)
                              ../neural_bsp//newlib/nios2-elf/lib\libc.a(lib_a-mallocr.o) (_sbrk_r)
../neural_bsp//newlib/nios2-elf/lib\libc.a(lib_a-srand48.o)
                              obj/default/main.o (srand48)
../neural_bsp//newlib/nios2-elf/lib\libc.a(lib_a-strlen.o)
                              ../neural_bsp//newlib/nios2-elf/lib\libc.a(lib_a-puts.o) (strlen)
../neural_bsp//newlib/nios2-elf/lib\libc.a(lib_a-strtol.o)
                              ../neural_bsp//newlib/nios2-elf/lib\libc.a(lib_a-atoi.o) (_strtol_r)
../neural_bsp//newlib/nios2-elf/lib\libc.a(lib_a-time.o)
                              obj/default/main.o (time)
../neural_bsp//newlib/nios2-elf/lib\libc.a(lib_a-vfprintf.o)
                              ../neural_bsp//newlib/nios2-elf/lib\libc.a(lib_a-printf.o) (___vfprintf_internal_r)
../neural_bsp//newlib/nios2-elf/lib\libc.a(lib_a-wsetup.o)
                              ../neural_bsp//newlib/nios2-elf/lib\libc.a(lib_a-vfprintf.o) (__swsetup_r)
../neural_bsp//newlib/nios2-elf/lib\libc.a(lib_a-ctype_.o)
                              ../neural_bsp//newlib/nios2-elf/lib\libc.a(lib_a-strtol.o) (__ctype_ptr__)
../neural_bsp//newlib/nios2-elf/lib\libc.a(lib_a-dtoa.o)
                              ../neural_bsp//newlib/nios2-elf/lib\libc.a(lib_a-vfprintf.o) (_dtoa_r)
../neural_bsp//newlib/nios2-elf/lib\libc.a(lib_a-errno.o)
                              ../neural_bsp//newlib/nios2-elf/lib\libc.a(lib_a-s_ldexp.o) (__errno)
../neural_bsp//newlib/nios2-elf/lib\libc.a(lib_a-fflush.o)
                              ../neural_bsp//newlib/nios2-elf/lib\libc.a(lib_a-vfprintf.o) (_fflush_r)
../neural_bsp//newlib/nios2-elf/lib\libc.a(lib_a-findfp.o)
                              ../neural_bsp//newlib/nios2-elf/lib\libc.a(lib_a-getc.o) (__sinit)
../neural_bsp//newlib/nios2-elf/lib\libc.a(lib_a-freer.o)
                              ../neural_bsp//newlib/nios2-elf/lib\libc.a(lib_a-malloc.o) (_free_r)
../neural_bsp//newlib/nios2-elf/lib\libc.a(lib_a-fvwrite.o)
                              ../neural_bsp//newlib/nios2-elf/lib\libc.a(lib_a-puts.o) (__sfvwrite_r)
../neural_bsp//newlib/nios2-elf/lib\libc.a(lib_a-fwalk.o)
                              ../neural_bsp//newlib/nios2-elf/lib\libc.a(lib_a-findfp.o) (_fwalk)
../neural_bsp//newlib/nios2-elf/lib\libc.a(lib_a-gettimeofdayr.o)
                              ../neural_bsp//newlib/nios2-elf/lib\libc.a(lib_a-time.o) (_gettimeofday_r)
../neural_bsp//newlib/nios2-elf/lib\libc.a(lib_a-int_errno.o)
                              ../neural_bsp//newlib/nios2-elf/lib\libc.a(lib_a-sbrkr.o) (errno)
../neural_bsp//newlib/nios2-elf/lib\libc.a(lib_a-locale.o)
                              ../neural_bsp//newlib/nios2-elf/lib\libc.a(lib_a-vfprintf.o) (_localeconv_r)
../neural_bsp//newlib/nios2-elf/lib\libc.a(lib_a-makebuf.o)
                              ../neural_bsp//newlib/nios2-elf/lib\libc.a(lib_a-wsetup.o) (__smakebuf_r)
../neural_bsp//newlib/nios2-elf/lib\libc.a(lib_a-memchr.o)
                              ../neural_bsp//newlib/nios2-elf/lib\libc.a(lib_a-vfprintf.o) (memchr)
../neural_bsp//newlib/nios2-elf/lib\libc.a(lib_a-memcpy.o)
                              ../neural_bsp//newlib/nios2-elf/lib\libc.a(lib_a-dtoa.o) (memcpy)
../neural_bsp//newlib/nios2-elf/lib\libc.a(lib_a-memmove.o)
                              ../neural_bsp//newlib/nios2-elf/lib\libc.a(lib_a-reallocr.o) (memmove)
../neural_bsp//newlib/nios2-elf/lib\libc.a(lib_a-mprec.o)
                              ../neural_bsp//newlib/nios2-elf/lib\libc.a(lib_a-dtoa.o) (_Balloc)
../neural_bsp//newlib/nios2-elf/lib\libc.a(lib_a-putc.o)
                              ../neural_bsp//newlib/nios2-elf/lib\libc.a(lib_a-putchar.o) (_putc_r)
../neural_bsp//newlib/nios2-elf/lib\libc.a(lib_a-refill.o)
                              ../neural_bsp//newlib/nios2-elf/lib\libc.a(lib_a-rget.o) (__srefill_r)
../neural_bsp//newlib/nios2-elf/lib\libc.a(lib_a-s_copysign.o)
                              ../neural_bsp//newlib/nios2-elf/lib\libc.a(lib_a-s_scalbn.o) (copysign)
../neural_bsp//newlib/nios2-elf/lib\libc.a(lib_a-s_finite.o)
                              ../neural_bsp//newlib/nios2-elf/lib\libc.a(lib_a-s_ldexp.o) (finite)
../neural_bsp//newlib/nios2-elf/lib\libc.a(lib_a-s_fpclassify.o)
                              ../neural_bsp//newlib/nios2-elf/lib\libc.a(lib_a-vfprintf.o) (__fpclassifyd)
../neural_bsp//newlib/nios2-elf/lib\libc.a(lib_a-stdio.o)
                              ../neural_bsp//newlib/nios2-elf/lib\libc.a(lib_a-findfp.o) (__sread)
../neural_bsp//newlib/nios2-elf/lib\libc.a(lib_a-strcmp.o)
                              ../neural_bsp//newlib/nios2-elf/lib\libc.a(lib_a-locale.o) (strcmp)
../neural_bsp//newlib/nios2-elf/lib\libc.a(lib_a-vfiprintf.o)
                              ../neural_bsp//newlib/nios2-elf/lib\libc.a(lib_a-vfprintf.o) (__sprint_r)
../neural_bsp//newlib/nios2-elf/lib\libc.a(lib_a-wbuf.o)
                              ../neural_bsp//newlib/nios2-elf/lib\libc.a(lib_a-putc.o) (__swbuf_r)
../neural_bsp//newlib/nios2-elf/lib\libc.a(lib_a-writer.o)
                              ../neural_bsp//newlib/nios2-elf/lib\libc.a(lib_a-stdio.o) (_write_r)
../neural_bsp//newlib/nios2-elf/lib\libc.a(closer.o)
                              ../neural_bsp//newlib/nios2-elf/lib\libc.a(lib_a-stdio.o) (_close_r)
../neural_bsp//newlib/nios2-elf/lib\libc.a(lib_a-fclose.o)
                              ../neural_bsp//newlib/nios2-elf/lib\libc.a(lib_a-findfp.o) (_fclose_r)
../neural_bsp//newlib/nios2-elf/lib\libc.a(lib_a-fputwc.o)
                              ../neural_bsp//newlib/nios2-elf/lib\libc.a(lib_a-vfiprintf.o) (_fputwc_r)
../neural_bsp//newlib/nios2-elf/lib\libc.a(lib_a-fstatr.o)
                              ../neural_bsp//newlib/nios2-elf/lib\libc.a(lib_a-makebuf.o) (_fstat_r)
../neural_bsp//newlib/nios2-elf/lib\libc.a(lib_a-isattyr.o)
                              ../neural_bsp//newlib/nios2-elf/lib\libc.a(lib_a-makebuf.o) (_isatty_r)
../neural_bsp//newlib/nios2-elf/lib\libc.a(lib_a-lseekr.o)
                              ../neural_bsp//newlib/nios2-elf/lib\libc.a(lib_a-stdio.o) (_lseek_r)
../neural_bsp//newlib/nios2-elf/lib\libc.a(lib_a-readr.o)
                              ../neural_bsp//newlib/nios2-elf/lib\libc.a(lib_a-stdio.o) (_read_r)
../neural_bsp//newlib/nios2-elf/lib\libc.a(lib_a-wcrtomb.o)
                              ../neural_bsp//newlib/nios2-elf/lib\libc.a(lib_a-fputwc.o) (_wcrtomb_r)
../neural_bsp//newlib/nios2-elf/lib\libc.a(lib_a-wctomb_r.o)
                              ../neural_bsp//newlib/nios2-elf/lib\libc.a(lib_a-wcrtomb.o) (__wctomb)
c:/altera/16.0/nios2eds/bin/gnu/h-x86_64-mingw32/bin/../lib/gcc/nios2-elf/5.2.0/mno-hw-mul\libgcc.a(_udivdi3.o)
                              ../neural_bsp//newlib/nios2-elf/lib\libc.a(lib_a-vfprintf.o) (__udivdi3)
c:/altera/16.0/nios2eds/bin/gnu/h-x86_64-mingw32/bin/../lib/gcc/nios2-elf/5.2.0/mno-hw-mul\libgcc.a(_umoddi3.o)
                              ../neural_bsp//newlib/nios2-elf/lib\libc.a(lib_a-vfprintf.o) (__umoddi3)
c:/altera/16.0/nios2eds/bin/gnu/h-x86_64-mingw32/bin/../lib/gcc/nios2-elf/5.2.0/mno-hw-mul\libgcc.a(eqdf2.o)
                              ../neural_bsp//newlib/nios2-elf/lib\libc.a(lib_a-vfprintf.o) (__eqdf2)
c:/altera/16.0/nios2eds/bin/gnu/h-x86_64-mingw32/bin/../lib/gcc/nios2-elf/5.2.0/mno-hw-mul\libgcc.a(gedf2.o)
                              ../neural_bsp//newlib/nios2-elf/lib\libc.a(lib_a-dtoa.o) (__gtdf2)
c:/altera/16.0/nios2eds/bin/gnu/h-x86_64-mingw32/bin/../lib/gcc/nios2-elf/5.2.0/mno-hw-mul\libgcc.a(fixdfsi.o)
                              ../neural_bsp//newlib/nios2-elf/lib\libc.a(lib_a-dtoa.o) (__fixdfsi)
c:/altera/16.0/nios2eds/bin/gnu/h-x86_64-mingw32/bin/../lib/gcc/nios2-elf/5.2.0/mno-hw-mul\libgcc.a(floatsidf.o)
                              ../neural_bsp//newlib/nios2-elf/lib\libc.a(lib_a-dtoa.o) (__floatsidf)
c:/altera/16.0/nios2eds/bin/gnu/h-x86_64-mingw32/bin/../lib/gcc/nios2-elf/5.2.0/mno-hw-mul\libgcc.a(floatunsidf.o)
                              ../neural_bsp//newlib/nios2-elf/lib\libc.a(lib_a-erand48.o) (__floatunsidf)
../neural_bsp/\libhal_bsp.a(alt_close.o)
                              ../neural_bsp//newlib/nios2-elf/lib\libc.a(closer.o) (close)
../neural_bsp/\libhal_bsp.a(alt_dev.o)
                              ../neural_bsp/\libhal_bsp.a(alt_close.o) (alt_fd_list)
../neural_bsp/\libhal_bsp.a(alt_errno.o)
                              ../neural_bsp/\libhal_bsp.a(alt_close.o) (alt_errno)
../neural_bsp/\libhal_bsp.a(alt_fstat.o)
                              ../neural_bsp//newlib/nios2-elf/lib\libc.a(lib_a-fstatr.o) (fstat)
../neural_bsp/\libhal_bsp.a(alt_gettod.o)
                              ../neural_bsp//newlib/nios2-elf/lib\libc.a(lib_a-gettimeofdayr.o) (gettimeofday)
../neural_bsp/\libhal_bsp.a(alt_isatty.o)
                              ../neural_bsp//newlib/nios2-elf/lib\libc.a(lib_a-isattyr.o) (isatty)
../neural_bsp/\libhal_bsp.a(alt_load.o)
                              ../neural_bsp//obj/HAL/src/crt0.o (alt_load)
../neural_bsp/\libhal_bsp.a(alt_lseek.o)
                              ../neural_bsp//newlib/nios2-elf/lib\libc.a(lib_a-lseekr.o) (lseek)
../neural_bsp/\libhal_bsp.a(alt_main.o)
                              ../neural_bsp//obj/HAL/src/crt0.o (alt_main)
../neural_bsp/\libhal_bsp.a(alt_malloc_lock.o)
                              ../neural_bsp//newlib/nios2-elf/lib\libc.a(lib_a-mallocr.o) (__malloc_lock)
../neural_bsp/\libhal_bsp.a(alt_read.o)
                              ../neural_bsp//newlib/nios2-elf/lib\libc.a(lib_a-readr.o) (read)
../neural_bsp/\libhal_bsp.a(alt_release_fd.o)
                              ../neural_bsp/\libhal_bsp.a(alt_close.o) (alt_release_fd)
../neural_bsp/\libhal_bsp.a(alt_sbrk.o)
                              ../neural_bsp//newlib/nios2-elf/lib\libc.a(lib_a-sbrkr.o) (sbrk)
../neural_bsp/\libhal_bsp.a(alt_tick.o)
                              ../neural_bsp/\libhal_bsp.a(alt_gettod.o) (_alt_tick_rate)
../neural_bsp/\libhal_bsp.a(alt_write.o)
                              ../neural_bsp//newlib/nios2-elf/lib\libc.a(lib_a-writer.o) (write)
../neural_bsp/\libhal_bsp.a(alt_sys_init.o)
                              ../neural_bsp/\libhal_bsp.a(alt_main.o) (alt_irq_init)
../neural_bsp/\libhal_bsp.a(altera_avalon_jtag_uart_fd.o)
                              ../neural_bsp/\libhal_bsp.a(alt_sys_init.o) (altera_avalon_jtag_uart_read_fd)
../neural_bsp/\libhal_bsp.a(altera_avalon_jtag_uart_init.o)
                              ../neural_bsp/\libhal_bsp.a(alt_sys_init.o) (altera_avalon_jtag_uart_init)
../neural_bsp/\libhal_bsp.a(altera_avalon_jtag_uart_ioctl.o)
                              ../neural_bsp/\libhal_bsp.a(altera_avalon_jtag_uart_fd.o) (altera_avalon_jtag_uart_ioctl)
../neural_bsp/\libhal_bsp.a(altera_avalon_jtag_uart_read.o)
                              ../neural_bsp/\libhal_bsp.a(altera_avalon_jtag_uart_fd.o) (altera_avalon_jtag_uart_read)
../neural_bsp/\libhal_bsp.a(altera_avalon_jtag_uart_write.o)
                              ../neural_bsp/\libhal_bsp.a(altera_avalon_jtag_uart_fd.o) (altera_avalon_jtag_uart_write)
../neural_bsp/\libhal_bsp.a(altera_hostfs.o)
                              ../neural_bsp/\libhal_bsp.a(alt_sys_init.o) (alt_hostfs_open)
../neural_bsp/\libhal_bsp.a(alt_alarm_start.o)
                              ../neural_bsp/\libhal_bsp.a(altera_avalon_jtag_uart_init.o) (alt_alarm_start)
../neural_bsp/\libhal_bsp.a(alt_dcache_flush_all.o)
                              ../neural_bsp/\libhal_bsp.a(alt_load.o) (alt_dcache_flush_all)
../neural_bsp/\libhal_bsp.a(alt_dev_llist_insert.o)
                              ../neural_bsp/\libhal_bsp.a(alt_sys_init.o) (alt_dev_llist_insert)
../neural_bsp/\libhal_bsp.a(alt_do_ctors.o)
                              ../neural_bsp/\libhal_bsp.a(alt_main.o) (_do_ctors)
../neural_bsp/\libhal_bsp.a(alt_do_dtors.o)
                              ../neural_bsp/\libhal_bsp.a(alt_main.o) (_do_dtors)
../neural_bsp/\libhal_bsp.a(alt_fs_reg.o)
                              ../neural_bsp/\libhal_bsp.a(alt_sys_init.o) (alt_fs_reg)
../neural_bsp/\libhal_bsp.a(alt_icache_flush_all.o)
                              ../neural_bsp/\libhal_bsp.a(alt_load.o) (alt_icache_flush_all)
../neural_bsp/\libhal_bsp.a(alt_iic.o)
                              ../neural_bsp/\libhal_bsp.a(altera_avalon_jtag_uart_init.o) (alt_ic_isr_register)
../neural_bsp/\libhal_bsp.a(alt_iic_isr_register.o)
                              ../neural_bsp/\libhal_bsp.a(alt_iic.o) (alt_iic_isr_register)
../neural_bsp/\libhal_bsp.a(alt_io_redirect.o)
                              ../neural_bsp/\libhal_bsp.a(alt_main.o) (alt_io_redirect)
../neural_bsp/\libhal_bsp.a(alt_irq_entry.o)
                              ../neural_bsp/\libhal_bsp.a(alt_iic_isr_register.o) (alt_irq_entry)
../neural_bsp/\libhal_bsp.a(alt_irq_handler.o)
                              ../neural_bsp/\libhal_bsp.a(alt_iic_isr_register.o) (alt_irq)
../neural_bsp/\libhal_bsp.a(alt_irq_vars.o)
                              ../neural_bsp/\libhal_bsp.a(alt_iic.o) (alt_irq_active)
../neural_bsp/\libhal_bsp.a(alt_open.o)
                              ../neural_bsp/\libhal_bsp.a(alt_io_redirect.o) (open)
../neural_bsp/\libhal_bsp.a(altera_nios2_gen2_irq.o)
                              ../neural_bsp/\libhal_bsp.a(alt_sys_init.o) (altera_nios2_gen2_irq_init)
../neural_bsp/\libhal_bsp.a(alt_exception_entry.o)
                              ../neural_bsp/\libhal_bsp.a(alt_irq_entry.o) (alt_exception)
../neural_bsp/\libhal_bsp.a(alt_find_dev.o)
                              ../neural_bsp/\libhal_bsp.a(alt_open.o) (alt_find_dev)
../neural_bsp/\libhal_bsp.a(alt_find_file.o)
                              ../neural_bsp/\libhal_bsp.a(alt_open.o) (alt_find_file)
../neural_bsp/\libhal_bsp.a(alt_get_fd.o)
                              ../neural_bsp/\libhal_bsp.a(alt_open.o) (alt_get_fd)
../neural_bsp/\libhal_bsp.a(alt_instruction_exception_entry.o)
                              ../neural_bsp/\libhal_bsp.a(alt_exception_entry.o) (alt_instruction_exception_entry)
../neural_bsp//newlib/nios2-elf/lib\libc.a(lib_a-atexit.o)
                              ../neural_bsp/\libhal_bsp.a(alt_main.o) (atexit)
../neural_bsp//newlib/nios2-elf/lib\libc.a(lib_a-exit.o)
                              ../neural_bsp/\libhal_bsp.a(alt_main.o) (exit)
../neural_bsp//newlib/nios2-elf/lib\libc.a(lib_a-memcmp.o)
                              ../neural_bsp/\libhal_bsp.a(alt_find_dev.o) (memcmp)
../neural_bsp//newlib/nios2-elf/lib\libc.a(lib_a-__atexit.o)
                              ../neural_bsp//newlib/nios2-elf/lib\libc.a(lib_a-atexit.o) (__register_exitproc)
../neural_bsp//newlib/nios2-elf/lib\libc.a(lib_a-__call_atexit.o)
                              ../neural_bsp//newlib/nios2-elf/lib\libc.a(lib_a-exit.o) (__call_exitprocs)
c:/altera/16.0/nios2eds/bin/gnu/h-x86_64-mingw32/bin/../lib/gcc/nios2-elf/5.2.0/mno-hw-mul\libgcc.a(_muldi3.o)
                              ../neural_bsp/\libhal_bsp.a(alt_gettod.o) (__muldi3)
../neural_bsp/\libhal_bsp.a(alt_exit.o)
                              ../neural_bsp//newlib/nios2-elf/lib\libc.a(lib_a-exit.o) (_exit)

Allocating common symbols
Common symbol       size              file

alt_irq             0x100             ../neural_bsp/\libhal_bsp.a(alt_irq_handler.o)
layer_2             0x28              obj/default/main.o
errno               0x4               ../neural_bsp//newlib/nios2-elf/lib\libc.a(lib_a-int_errno.o)
total_runs          0x4               obj/default/main.o
layer_1             0x24              obj/default/main.o
target_vals         0xc               obj/default/main.o
attr_vals           0xc               obj/default/main.o
num_incorrect       0x4               obj/default/main.o
curr_point          0x4               obj/default/main.o

Memory Configuration

Name             Origin             Length             Attributes
onchip_memory2_0 0x0000000000000000 0x0000000000000010
reset            0x0000000010000000 0x0000000000000020
sdram            0x0000000010000020 0x0000000007ffffe0
*default*        0x0000000000000000 0xffffffffffffffff

Linker script and memory map

LOAD ../neural_bsp//obj/HAL/src/crt0.o
LOAD obj/default/formula.o
LOAD obj/default/main.o
LOAD obj/default/types.o
LOAD c:/altera/16.0/nios2eds/bin/gnu/h-x86_64-mingw32/bin/../lib/gcc/nios2-elf/5.2.0/../../../../../H-x86_64-mingw32/nios2-elf/lib/mno-hw-mul\libstdc++.a
LOAD ../neural_bsp//newlib/nios2-elf/lib\libm.a
LOAD c:/altera/16.0/nios2eds/bin/gnu/h-x86_64-mingw32/bin/../lib/gcc/nios2-elf/5.2.0/mno-hw-mul\libgcc.a
START GROUP
LOAD ../neural_bsp//newlib/nios2-elf/lib\libc.a
LOAD c:/altera/16.0/nios2eds/bin/gnu/h-x86_64-mingw32/bin/../lib/gcc/nios2-elf/5.2.0/mno-hw-mul\libgcc.a
LOAD ../neural_bsp/\libhal_bsp.a
LOAD ../neural_bsp//newlib/nios2-elf/lib\libm.a
END GROUP
LOAD c:/altera/16.0/nios2eds/bin/gnu/h-x86_64-mingw32/bin/../lib/gcc/nios2-elf/5.2.0/mno-hw-mul\libgcc.a
                0x0000000000000000                __alt_mem_onchip_memory2_0 = 0x0
                0x0000000010000000                __alt_mem_sdram = 0x10000000

.entry          0x0000000010000000       0x20
 *(.entry)
 .entry         0x0000000010000000       0x20 ../neural_bsp//obj/HAL/src/crt0.o
                0x0000000010000000                __reset

.exceptions     0x0000000010000020      0x210
                0x0000000010000020                PROVIDE (__ram_exceptions_start, ABSOLUTE (.))
                0x0000000010000020                . = ALIGN (0x20)
 *(.irq)
 *(.exceptions.entry.label)
 .exceptions.entry.label
                0x0000000010000020        0x0 ../neural_bsp/\libhal_bsp.a(alt_irq_entry.o)
                0x0000000010000020                alt_irq_entry
 .exceptions.entry.label
                0x0000000010000020        0x0 ../neural_bsp/\libhal_bsp.a(alt_exception_entry.o)
                0x0000000010000020                alt_exception
 *(.exceptions.entry.user)
 *(.exceptions.entry.ecc_fatal)
 *(.exceptions.entry)
 .exceptions.entry
                0x0000000010000020       0x54 ../neural_bsp/\libhal_bsp.a(alt_exception_entry.o)
 *(.exceptions.irqtest.user)
 *(.exceptions.irqtest)
 .exceptions.irqtest
                0x0000000010000074       0x10 ../neural_bsp/\libhal_bsp.a(alt_irq_entry.o)
 *(.exceptions.irqhandler.user)
 *(.exceptions.irqhandler)
 .exceptions.irqhandler
                0x0000000010000084        0x4 ../neural_bsp/\libhal_bsp.a(alt_irq_entry.o)
 *(.exceptions.irqreturn.user)
 *(.exceptions.irqreturn)
 .exceptions.irqreturn
                0x0000000010000088        0x4 ../neural_bsp/\libhal_bsp.a(alt_irq_entry.o)
 *(.exceptions.notirq.label)
 .exceptions.notirq.label
                0x000000001000008c        0x0 ../neural_bsp/\libhal_bsp.a(alt_irq_entry.o)
 *(.exceptions.notirq.user)
 *(.exceptions.notirq)
 .exceptions.notirq
                0x000000001000008c        0x8 ../neural_bsp/\libhal_bsp.a(alt_exception_entry.o)
 *(.exceptions.soft.user)
 *(.exceptions.soft)
 *(.exceptions.unknown.user)
 *(.exceptions.unknown)
 .exceptions.unknown
                0x0000000010000094       0x14 ../neural_bsp/\libhal_bsp.a(alt_exception_entry.o)
 *(.exceptions.exit.label)
 .exceptions.exit.label
                0x00000000100000a8        0x0 ../neural_bsp/\libhal_bsp.a(alt_irq_entry.o)
 .exceptions.exit.label
                0x00000000100000a8        0x0 ../neural_bsp/\libhal_bsp.a(alt_exception_entry.o)
 *(.exceptions.exit.user)
 *(.exceptions.exit)
 .exceptions.exit
                0x00000000100000a8       0x54 ../neural_bsp/\libhal_bsp.a(alt_exception_entry.o)
 *(.exceptions)
 .exceptions    0x00000000100000fc       0xd4 ../neural_bsp/\libhal_bsp.a(alt_irq_handler.o)
                0x00000000100000fc                alt_irq_handler
 .exceptions    0x00000000100001d0       0x60 ../neural_bsp/\libhal_bsp.a(alt_instruction_exception_entry.o)
                0x00000000100001d0                alt_instruction_exception_entry
                0x0000000010000230                PROVIDE (__ram_exceptions_end, ABSOLUTE (.))
                0x0000000010000020                PROVIDE (__flash_exceptions_start, LOADADDR (.exceptions))

.text           0x0000000010000230    0x18730
                [!provide]                        PROVIDE (stext, ABSOLUTE (.))
 *(.interp)
 *(.hash)
 *(.dynsym)
 *(.dynstr)
 *(.gnu.version)
 *(.gnu.version_d)
 *(.gnu.version_r)
 *(.rel.init)
 *(.rela.init)
 *(.rel.text .rel.text.* .rel.gnu.linkonce.t.*)
 *(.rela.text .rela.text.* .rela.gnu.linkonce.t.*)
 *(.rel.fini)
 *(.rela.fini)
 *(.rel.rodata .rel.rodata.* .rel.gnu.linkonce.r.*)
 *(.rela.rodata .rela.rodata.* .rela.gnu.linkonce.r.*)
 *(.rel.data .rel.data.* .rel.gnu.linkonce.d.*)
 *(.rela.data .rela.data.* .rela.gnu.linkonce.d.*)
 *(.rel.tdata .rel.tdata.* .rel.gnu.linkonce.td.*)
 *(.rela.tdata .rela.tdata.* .rela.gnu.linkonce.td.*)
 *(.rel.tbss .rel.tbss.* .rel.gnu.linkonce.tb.*)
 *(.rela.tbss .rela.tbss.* .rela.gnu.linkonce.tb.*)
 *(.rel.ctors)
 *(.rela.ctors)
 *(.rel.dtors)
 *(.rela.dtors)
 *(.rel.got)
 *(.rela.got)
 *(.rel.sdata .rel.sdata.* .rel.gnu.linkonce.s.*)
 *(.rela.sdata .rela.sdata.* .rela.gnu.linkonce.s.*)
 *(.rel.sbss .rel.sbss.* .rel.gnu.linkonce.sb.*)
 *(.rela.sbss .rela.sbss.* .rela.gnu.linkonce.sb.*)
 *(.rel.sdata2 .rel.sdata2.* .rel.gnu.linkonce.s2.*)
 *(.rela.sdata2 .rela.sdata2.* .rela.gnu.linkonce.s2.*)
 *(.rel.sbss2 .rel.sbss2.* .rel.gnu.linkonce.sb2.*)
 *(.rela.sbss2 .rela.sbss2.* .rela.gnu.linkonce.sb2.*)
 *(.rel.bss .rel.bss.* .rel.gnu.linkonce.b.*)
 *(.rela.bss .rela.bss.* .rela.gnu.linkonce.b.*)
 *(.rel.plt)
 *(.rela.plt)
 *(.rel.dyn)
 *(.init)
 *(.plt)
 *(.text .stub .text.* .gnu.linkonce.t.*)
 .text          0x0000000010000230       0x3c ../neural_bsp//obj/HAL/src/crt0.o
                0x0000000010000230                _start
 .text          0x000000001000026c      0x488 obj/default/formula.o
                0x000000001000026c                sigmoid
                0x000000001000047c                inv_sigmoid
                0x00000000100004f0                err
                0x0000000010000578                inv_err
                0x00000000100005bc                debug
 .text          0x00000000100006f4      0x888 obj/default/main.o
                0x00000000100006f4                parse_training_data
                0x000000001000084c                parse_testing_data
                0x0000000010000980                main
 .text          0x0000000010000f7c     0x15bc obj/default/types.o
                0x0000000010000f7c                init_array
                0x0000000010000ff0                insert_array
                0x00000000100010e8                get_array_value
                0x0000000010001148                free_array
                0x000000001000119c                print_array
                0x0000000010001240                print_float_array
                0x00000000100012d0                dot_product_1
                0x00000000100013e4                dot_product_2
                0x00000000100014b4                init_layer_1
                0x0000000010001768                eval_layer_1
                0x00000000100018a4                backprop_layer_1
                0x0000000010001ba0                free_layer_1
                0x0000000010001d0c                init_layer_2
                0x0000000010002000                eval_layer_2
                0x000000001000211c                backprop_layer_2
                0x00000000100023d4                free_layer_2
 .text          0x0000000010002538       0x60 c:/altera/16.0/nios2eds/bin/gnu/h-x86_64-mingw32/bin/../lib/gcc/nios2-elf/5.2.0/mno-hw-mul\libgcc.a(_fixunssfsi.o)
                0x0000000010002538                __fixunssfsi
 .text          0x0000000010002598      0x1b4 c:/altera/16.0/nios2eds/bin/gnu/h-x86_64-mingw32/bin/../lib/gcc/nios2-elf/5.2.0/mno-hw-mul\libgcc.a(lib2-divmod.o)
                0x0000000010002598                __divsi3
                0x000000001000261c                __modsi3
                0x0000000010002690                __udivsi3
                0x00000000100026f4                __umodsi3
 .text          0x000000001000274c      0x4c8 c:/altera/16.0/nios2eds/bin/gnu/h-x86_64-mingw32/bin/../lib/gcc/nios2-elf/5.2.0/mno-hw-mul\libgcc.a(addsf3.o)
                0x000000001000274c                __addsf3
 .text          0x0000000010002c14      0x440 c:/altera/16.0/nios2eds/bin/gnu/h-x86_64-mingw32/bin/../lib/gcc/nios2-elf/5.2.0/mno-hw-mul\libgcc.a(divsf3.o)
                0x0000000010002c14                __divsf3
 .text          0x0000000010003054       0x78 c:/altera/16.0/nios2eds/bin/gnu/h-x86_64-mingw32/bin/../lib/gcc/nios2-elf/5.2.0/mno-hw-mul\libgcc.a(eqsf2.o)
                0x0000000010003054                __eqsf2
                0x0000000010003054                __nesf2
 .text          0x00000000100030cc       0xbc c:/altera/16.0/nios2eds/bin/gnu/h-x86_64-mingw32/bin/../lib/gcc/nios2-elf/5.2.0/mno-hw-mul\libgcc.a(gesf2.o)
                0x00000000100030cc                __gesf2
                0x00000000100030cc                __gtsf2
 .text          0x0000000010003188       0xc8 c:/altera/16.0/nios2eds/bin/gnu/h-x86_64-mingw32/bin/../lib/gcc/nios2-elf/5.2.0/mno-hw-mul\libgcc.a(lesf2.o)
                0x0000000010003188                __ltsf2
                0x0000000010003188                __lesf2
 .text          0x0000000010003250      0x430 c:/altera/16.0/nios2eds/bin/gnu/h-x86_64-mingw32/bin/../lib/gcc/nios2-elf/5.2.0/mno-hw-mul\libgcc.a(mulsf3.o)
                0x0000000010003250                __mulsf3
 .text          0x0000000010003680      0x4e4 c:/altera/16.0/nios2eds/bin/gnu/h-x86_64-mingw32/bin/../lib/gcc/nios2-elf/5.2.0/mno-hw-mul\libgcc.a(subsf3.o)
                0x0000000010003680                __subsf3
 .text          0x0000000010003b64       0x70 c:/altera/16.0/nios2eds/bin/gnu/h-x86_64-mingw32/bin/../lib/gcc/nios2-elf/5.2.0/mno-hw-mul\libgcc.a(fixsfsi.o)
                0x0000000010003b64                __fixsfsi
 .text          0x0000000010003bd4      0x124 c:/altera/16.0/nios2eds/bin/gnu/h-x86_64-mingw32/bin/../lib/gcc/nios2-elf/5.2.0/mno-hw-mul\libgcc.a(floatsisf.o)
                0x0000000010003bd4                __floatsisf
 .text          0x0000000010003cf8       0xf0 c:/altera/16.0/nios2eds/bin/gnu/h-x86_64-mingw32/bin/../lib/gcc/nios2-elf/5.2.0/mno-hw-mul\libgcc.a(floatunsisf.o)
                0x0000000010003cf8                __floatunsisf
 .text          0x0000000010003de8      0x8ac c:/altera/16.0/nios2eds/bin/gnu/h-x86_64-mingw32/bin/../lib/gcc/nios2-elf/5.2.0/mno-hw-mul\libgcc.a(adddf3.o)
                0x0000000010003de8                __adddf3
 .text          0x0000000010004694      0x9d0 c:/altera/16.0/nios2eds/bin/gnu/h-x86_64-mingw32/bin/../lib/gcc/nios2-elf/5.2.0/mno-hw-mul\libgcc.a(divdf3.o)
                0x0000000010004694                __divdf3
 .text          0x0000000010005064       0xf4 c:/altera/16.0/nios2eds/bin/gnu/h-x86_64-mingw32/bin/../lib/gcc/nios2-elf/5.2.0/mno-hw-mul\libgcc.a(ledf2.o)
                0x0000000010005064                __ledf2
                0x0000000010005064                __ltdf2
 .text          0x0000000010005158      0x868 c:/altera/16.0/nios2eds/bin/gnu/h-x86_64-mingw32/bin/../lib/gcc/nios2-elf/5.2.0/mno-hw-mul\libgcc.a(muldf3.o)
                0x0000000010005158                __muldf3
 .text          0x00000000100059c0      0x8fc c:/altera/16.0/nios2eds/bin/gnu/h-x86_64-mingw32/bin/../lib/gcc/nios2-elf/5.2.0/mno-hw-mul\libgcc.a(subdf3.o)
                0x00000000100059c0                __subdf3
 .text          0x00000000100062bc      0x110 c:/altera/16.0/nios2eds/bin/gnu/h-x86_64-mingw32/bin/../lib/gcc/nios2-elf/5.2.0/mno-hw-mul\libgcc.a(extendsfdf2.o)
                0x00000000100062bc                __extendsfdf2
 .text          0x00000000100063cc      0x1a8 c:/altera/16.0/nios2eds/bin/gnu/h-x86_64-mingw32/bin/../lib/gcc/nios2-elf/5.2.0/mno-hw-mul\libgcc.a(truncdfsf2.o)
                0x00000000100063cc                __truncdfsf2
 .text          0x0000000010006574       0x64 c:/altera/16.0/nios2eds/bin/gnu/h-x86_64-mingw32/bin/../lib/gcc/nios2-elf/5.2.0/mno-hw-mul\libgcc.a(_clzsi2.o)
                0x0000000010006574                __clzsi2
 .text          0x00000000100065d8       0x28 c:/altera/16.0/nios2eds/bin/gnu/h-x86_64-mingw32/bin/../lib/gcc/nios2-elf/5.2.0/mno-hw-mul\libgcc.a(lib2-mul.o)
                0x00000000100065d8                __mulsi3
 .text          0x0000000010006600        0x0 c:/altera/16.0/nios2eds/bin/gnu/h-x86_64-mingw32/bin/../lib/gcc/nios2-elf/5.2.0/mno-hw-mul\libgcc.a(_clz.o)
 .text          0x0000000010006600        0x0 ../neural_bsp//newlib/nios2-elf/lib\libc.a(lib_a-atoi.o)
 .text.atoi     0x0000000010006600       0x38 ../neural_bsp//newlib/nios2-elf/lib\libc.a(lib_a-atoi.o)
                0x0000000010006600                atoi
 .text._atoi_r  0x0000000010006638       0x40 ../neural_bsp//newlib/nios2-elf/lib\libc.a(lib_a-atoi.o)
                0x0000000010006638                _atoi_r
 .text          0x0000000010006678        0x0 ../neural_bsp//newlib/nios2-elf/lib\libc.a(lib_a-calloc.o)
 .text.calloc   0x0000000010006678       0x48 ../neural_bsp//newlib/nios2-elf/lib\libc.a(lib_a-calloc.o)
                0x0000000010006678                calloc
 .text          0x00000000100066c0        0x0 ../neural_bsp//newlib/nios2-elf/lib\libc.a(lib_a-callocr.o)
 .text._calloc_r
                0x00000000100066c0      0x164 ../neural_bsp//newlib/nios2-elf/lib\libc.a(lib_a-callocr.o)
                0x00000000100066c0                _calloc_r
 .text          0x0000000010006824        0x0 ../neural_bsp//newlib/nios2-elf/lib\libc.a(lib_a-drand48.o)
 .text._drand48_r
                0x0000000010006824       0x54 ../neural_bsp//newlib/nios2-elf/lib\libc.a(lib_a-drand48.o)
                0x0000000010006824                _drand48_r
 .text.drand48  0x0000000010006878       0x50 ../neural_bsp//newlib/nios2-elf/lib\libc.a(lib_a-drand48.o)
                0x0000000010006878                drand48
 .text          0x00000000100068c8        0x0 ../neural_bsp//newlib/nios2-elf/lib\libc.a(lib_a-erand48.o)
 .text._erand48_r
                0x00000000100068c8      0x144 ../neural_bsp//newlib/nios2-elf/lib\libc.a(lib_a-erand48.o)
                0x00000000100068c8                _erand48_r
 .text.erand48  0x0000000010006a0c       0x58 ../neural_bsp//newlib/nios2-elf/lib\libc.a(lib_a-erand48.o)
                0x0000000010006a0c                erand48
 .text          0x0000000010006a64        0x0 ../neural_bsp//newlib/nios2-elf/lib\libc.a(lib_a-getc.o)
 .text._getc_r  0x0000000010006a64       0x98 ../neural_bsp//newlib/nios2-elf/lib\libc.a(lib_a-getc.o)
                0x0000000010006a64                _getc_r
 .text.getc     0x0000000010006afc       0xa4 ../neural_bsp//newlib/nios2-elf/lib\libc.a(lib_a-getc.o)
                0x0000000010006afc                getc
 .text          0x0000000010006ba0        0x0 ../neural_bsp//newlib/nios2-elf/lib\libc.a(lib_a-impure.o)
 .text          0x0000000010006ba0        0x0 ../neural_bsp//newlib/nios2-elf/lib\libc.a(lib_a-malloc.o)
 .text.malloc   0x0000000010006ba0       0x40 ../neural_bsp//newlib/nios2-elf/lib\libc.a(lib_a-malloc.o)
                0x0000000010006ba0                malloc
 .text.free     0x0000000010006be0       0x44 ../neural_bsp//newlib/nios2-elf/lib\libc.a(lib_a-malloc.o)
                0x0000000010006be0                free
 .text          0x0000000010006c24        0x0 ../neural_bsp//newlib/nios2-elf/lib\libc.a(lib_a-mallocr.o)
 .text.malloc_extend_top
                0x0000000010006c24      0x3b4 ../neural_bsp//newlib/nios2-elf/lib\libc.a(lib_a-mallocr.o)
 .text._malloc_r
                0x0000000010006fd8      0xb7c ../neural_bsp//newlib/nios2-elf/lib\libc.a(lib_a-mallocr.o)
                0x0000000010006fd8                _malloc_r
 .text          0x0000000010007b54        0x0 ../neural_bsp//newlib/nios2-elf/lib\libc.a(lib_a-memset.o)
 .text.memset   0x0000000010007b54      0x1c4 ../neural_bsp//newlib/nios2-elf/lib\libc.a(lib_a-memset.o)
                0x0000000010007b54                memset
 .text          0x0000000010007d18        0x0 ../neural_bsp//newlib/nios2-elf/lib\libc.a(lib_a-printf.o)
 .text._printf_r
                0x0000000010007d18       0x64 ../neural_bsp//newlib/nios2-elf/lib\libc.a(lib_a-printf.o)
                0x0000000010007d18                _printf_r
 .text.printf   0x0000000010007d7c       0x78 ../neural_bsp//newlib/nios2-elf/lib\libc.a(lib_a-printf.o)
                0x0000000010007d7c                printf
 .text          0x0000000010007df4        0x0 ../neural_bsp//newlib/nios2-elf/lib\libc.a(lib_a-putchar.o)
 .text._putchar_r
                0x0000000010007df4       0x44 ../neural_bsp//newlib/nios2-elf/lib\libc.a(lib_a-putchar.o)
                0x0000000010007df4                _putchar_r
 .text.putchar  0x0000000010007e38       0x50 ../neural_bsp//newlib/nios2-elf/lib\libc.a(lib_a-putchar.o)
                0x0000000010007e38                putchar
 .text          0x0000000010007e88        0x0 ../neural_bsp//newlib/nios2-elf/lib\libc.a(lib_a-puts.o)
 .text._puts_r  0x0000000010007e88      0x118 ../neural_bsp//newlib/nios2-elf/lib\libc.a(lib_a-puts.o)
                0x0000000010007e88                _puts_r
 .text.puts     0x0000000010007fa0       0x40 ../neural_bsp//newlib/nios2-elf/lib\libc.a(lib_a-puts.o)
                0x0000000010007fa0                puts
 .text          0x0000000010007fe0        0x0 ../neural_bsp//newlib/nios2-elf/lib\libc.a(lib_a-rand48.o)
 .text.__dorand48
                0x0000000010007fe0      0x1b8 ../neural_bsp//newlib/nios2-elf/lib\libc.a(lib_a-rand48.o)
                0x0000000010007fe0                __dorand48
 .text          0x0000000010008198        0x0 ../neural_bsp//newlib/nios2-elf/lib\libc.a(lib_a-realloc.o)
 .text.realloc  0x0000000010008198       0x48 ../neural_bsp//newlib/nios2-elf/lib\libc.a(lib_a-realloc.o)
                0x0000000010008198                realloc
 .text          0x00000000100081e0        0x0 ../neural_bsp//newlib/nios2-elf/lib\libc.a(lib_a-reallocr.o)
 .text._realloc_r
                0x00000000100081e0      0xbf0 ../neural_bsp//newlib/nios2-elf/lib\libc.a(lib_a-reallocr.o)
                0x00000000100081e0                _realloc_r
 .text          0x0000000010008dd0        0x0 ../neural_bsp//newlib/nios2-elf/lib\libc.a(lib_a-rget.o)
 .text.__srget_r
                0x0000000010008dd0       0x90 ../neural_bsp//newlib/nios2-elf/lib\libc.a(lib_a-rget.o)
                0x0000000010008dd0                __srget_r
 .text.__srget  0x0000000010008e60       0x40 ../neural_bsp//newlib/nios2-elf/lib\libc.a(lib_a-rget.o)
                0x0000000010008e60                __srget
 .text          0x0000000010008ea0        0x0 ../neural_bsp//newlib/nios2-elf/lib\libc.a(lib_a-s_ldexp.o)
 .text.ldexp    0x0000000010008ea0       0xcc ../neural_bsp//newlib/nios2-elf/lib\libc.a(lib_a-s_ldexp.o)
                0x0000000010008ea0                ldexp
 .text          0x0000000010008f6c        0x0 ../neural_bsp//newlib/nios2-elf/lib\libc.a(lib_a-s_scalbn.o)
 .text.scalbn   0x0000000010008f6c      0x3a8 ../neural_bsp//newlib/nios2-elf/lib\libc.a(lib_a-s_scalbn.o)
                0x0000000010008f6c                scalbn
 .text          0x0000000010009314        0x0 ../neural_bsp//newlib/nios2-elf/lib\libc.a(lib_a-sbrkr.o)
 .text._sbrk_r  0x0000000010009314       0x78 ../neural_bsp//newlib/nios2-elf/lib\libc.a(lib_a-sbrkr.o)
                0x0000000010009314                _sbrk_r
 .text          0x000000001000938c        0x0 ../neural_bsp//newlib/nios2-elf/lib\libc.a(lib_a-srand48.o)
 .text._srand48_r
                0x000000001000938c       0x88 ../neural_bsp//newlib/nios2-elf/lib\libc.a(lib_a-srand48.o)
                0x000000001000938c                _srand48_r
 .text.srand48  0x0000000010009414       0x44 ../neural_bsp//newlib/nios2-elf/lib\libc.a(lib_a-srand48.o)
                0x0000000010009414                srand48
 .text          0x0000000010009458        0x0 ../neural_bsp//newlib/nios2-elf/lib\libc.a(lib_a-strlen.o)
 .text.strlen   0x0000000010009458       0xf4 ../neural_bsp//newlib/nios2-elf/lib\libc.a(lib_a-strlen.o)
                0x0000000010009458                strlen
 .text          0x000000001000954c        0x0 ../neural_bsp//newlib/nios2-elf/lib\libc.a(lib_a-strtol.o)
 .text._strtol_r
                0x000000001000954c      0x2ec ../neural_bsp//newlib/nios2-elf/lib\libc.a(lib_a-strtol.o)
                0x000000001000954c                _strtol_r
 .text.strtol   0x0000000010009838       0x50 ../neural_bsp//newlib/nios2-elf/lib\libc.a(lib_a-strtol.o)
                0x0000000010009838                strtol
 .text          0x0000000010009888        0x0 ../neural_bsp//newlib/nios2-elf/lib\libc.a(lib_a-time.o)
 .text.time     0x0000000010009888       0x68 ../neural_bsp//newlib/nios2-elf/lib\libc.a(lib_a-time.o)
                0x0000000010009888                time
 .text          0x00000000100098f0        0x0 ../neural_bsp//newlib/nios2-elf/lib\libc.a(lib_a-vfprintf.o)
 .text.__sbprintf
                0x00000000100098f0       0xf0 ../neural_bsp//newlib/nios2-elf/lib\libc.a(lib_a-vfprintf.o)
 .text.__vfprintf_internal
                0x00000000100099e0       0x58 ../neural_bsp//newlib/nios2-elf/lib\libc.a(lib_a-vfprintf.o)
                0x00000000100099e0                __vfprintf_internal
 .text.___vfprintf_internal_r
                0x0000000010009a38     0x20e8 ../neural_bsp//newlib/nios2-elf/lib\libc.a(lib_a-vfprintf.o)
                0x0000000010009a38                ___vfprintf_internal_r
 .text.cvt      0x000000001000bb20      0x20c ../neural_bsp//newlib/nios2-elf/lib\libc.a(lib_a-vfprintf.o)
 .text.exponent
                0x000000001000bd2c      0x140 ../neural_bsp//newlib/nios2-elf/lib\libc.a(lib_a-vfprintf.o)
 .text          0x000000001000be6c        0x0 ../neural_bsp//newlib/nios2-elf/lib\libc.a(lib_a-wsetup.o)
 .text.__swsetup_r
                0x000000001000be6c      0x1a8 ../neural_bsp//newlib/nios2-elf/lib\libc.a(lib_a-wsetup.o)
                0x000000001000be6c                __swsetup_r
 .text          0x000000001000c014        0x0 ../neural_bsp//newlib/nios2-elf/lib\libc.a(lib_a-ctype_.o)
 .text          0x000000001000c014        0x0 ../neural_bsp//newlib/nios2-elf/lib\libc.a(lib_a-dtoa.o)
 .text.quorem   0x000000001000c014      0x3c4 ../neural_bsp//newlib/nios2-elf/lib\libc.a(lib_a-dtoa.o)
 .text._dtoa_r  0x000000001000c3d8     0x1b78 ../neural_bsp//newlib/nios2-elf/lib\libc.a(lib_a-dtoa.o)
                0x000000001000c3d8                _dtoa_r
 .text          0x000000001000df50        0x0 ../neural_bsp//newlib/nios2-elf/lib\libc.a(lib_a-errno.o)
 .text.__errno  0x000000001000df50       0x28 ../neural_bsp//newlib/nios2-elf/lib\libc.a(lib_a-errno.o)
                0x000000001000df50                __errno
 .text          0x000000001000df78        0x0 ../neural_bsp//newlib/nios2-elf/lib\libc.a(lib_a-fflush.o)
 .text.__sflush_r
                0x000000001000df78      0x304 ../neural_bsp//newlib/nios2-elf/lib\libc.a(lib_a-fflush.o)
                0x000000001000df78                __sflush_r
 .text._fflush_r
                0x000000001000e27c       0x88 ../neural_bsp//newlib/nios2-elf/lib\libc.a(lib_a-fflush.o)
                0x000000001000e27c                _fflush_r
 .text.fflush   0x000000001000e304       0x64 ../neural_bsp//newlib/nios2-elf/lib\libc.a(lib_a-fflush.o)
                0x000000001000e304                fflush
 .text          0x000000001000e368        0x0 ../neural_bsp//newlib/nios2-elf/lib\libc.a(lib_a-findfp.o)
 .text.std      0x000000001000e368       0xf4 ../neural_bsp//newlib/nios2-elf/lib\libc.a(lib_a-findfp.o)
 .text.__sfmoreglue
                0x000000001000e45c       0xbc ../neural_bsp//newlib/nios2-elf/lib\libc.a(lib_a-findfp.o)
                0x000000001000e45c                __sfmoreglue
 .text.__sfp    0x000000001000e518      0x1ac ../neural_bsp//newlib/nios2-elf/lib\libc.a(lib_a-findfp.o)
                0x000000001000e518                __sfp
 .text._cleanup_r
                0x000000001000e6c4       0x44 ../neural_bsp//newlib/nios2-elf/lib\libc.a(lib_a-findfp.o)
                0x000000001000e6c4                _cleanup_r
 .text._cleanup
                0x000000001000e708       0x3c ../neural_bsp//newlib/nios2-elf/lib\libc.a(lib_a-findfp.o)
                0x000000001000e708                _cleanup
 .text.__sinit  0x000000001000e744       0xd8 ../neural_bsp//newlib/nios2-elf/lib\libc.a(lib_a-findfp.o)
                0x000000001000e744                __sinit
 .text.__sfp_lock_acquire
                0x000000001000e81c       0x20 ../neural_bsp//newlib/nios2-elf/lib\libc.a(lib_a-findfp.o)
                0x000000001000e81c                __sfp_lock_acquire
 .text.__sfp_lock_release
                0x000000001000e83c       0x20 ../neural_bsp//newlib/nios2-elf/lib\libc.a(lib_a-findfp.o)
                0x000000001000e83c                __sfp_lock_release
 .text.__sinit_lock_acquire
                0x000000001000e85c       0x20 ../neural_bsp//newlib/nios2-elf/lib\libc.a(lib_a-findfp.o)
                0x000000001000e85c                __sinit_lock_acquire
 .text.__sinit_lock_release
                0x000000001000e87c       0x20 ../neural_bsp//newlib/nios2-elf/lib\libc.a(lib_a-findfp.o)
                0x000000001000e87c                __sinit_lock_release
 .text.__fp_lock
                0x000000001000e89c       0x24 ../neural_bsp//newlib/nios2-elf/lib\libc.a(lib_a-findfp.o)
 .text.__fp_unlock
                0x000000001000e8c0       0x24 ../neural_bsp//newlib/nios2-elf/lib\libc.a(lib_a-findfp.o)
 .text.__fp_lock_all
                0x000000001000e8e4       0x48 ../neural_bsp//newlib/nios2-elf/lib\libc.a(lib_a-findfp.o)
                0x000000001000e8e4                __fp_lock_all
 .text.__fp_unlock_all
                0x000000001000e92c       0x48 ../neural_bsp//newlib/nios2-elf/lib\libc.a(lib_a-findfp.o)
                0x000000001000e92c                __fp_unlock_all
 .text          0x000000001000e974        0x0 ../neural_bsp//newlib/nios2-elf/lib\libc.a(lib_a-freer.o)
 .text._free_r  0x000000001000e974      0x570 ../neural_bsp//newlib/nios2-elf/lib\libc.a(lib_a-freer.o)
                0x000000001000e974                _free_r
 .text._malloc_trim_r
                0x000000001000eee4      0x1d8 ../neural_bsp//newlib/nios2-elf/lib\libc.a(lib_a-freer.o)
                0x000000001000eee4                _malloc_trim_r
 .text          0x000000001000f0bc        0x0 ../neural_bsp//newlib/nios2-elf/lib\libc.a(lib_a-fvwrite.o)
 .text.__sfvwrite_r
                0x000000001000f0bc      0x5e8 ../neural_bsp//newlib/nios2-elf/lib\libc.a(lib_a-fvwrite.o)
                0x000000001000f0bc                __sfvwrite_r
 .text          0x000000001000f6a4        0x0 ../neural_bsp//newlib/nios2-elf/lib\libc.a(lib_a-fwalk.o)
 .text._fwalk   0x000000001000f6a4       0xd8 ../neural_bsp//newlib/nios2-elf/lib\libc.a(lib_a-fwalk.o)
                0x000000001000f6a4                _fwalk
 .text._fwalk_reent
                0x000000001000f77c       0xdc ../neural_bsp//newlib/nios2-elf/lib\libc.a(lib_a-fwalk.o)
                0x000000001000f77c                _fwalk_reent
 .text          0x000000001000f858        0x0 ../neural_bsp//newlib/nios2-elf/lib\libc.a(lib_a-gettimeofdayr.o)
 .text._gettimeofday_r
                0x000000001000f858       0x80 ../neural_bsp//newlib/nios2-elf/lib\libc.a(lib_a-gettimeofdayr.o)
                0x000000001000f858                _gettimeofday_r
 .text          0x000000001000f8d8        0x0 ../neural_bsp//newlib/nios2-elf/lib\libc.a(lib_a-int_errno.o)
 .text          0x000000001000f8d8        0x0 ../neural_bsp//newlib/nios2-elf/lib\libc.a(lib_a-locale.o)
 .text._setlocale_r
                0x000000001000f8d8       0x84 ../neural_bsp//newlib/nios2-elf/lib\libc.a(lib_a-locale.o)
                0x000000001000f8d8                _setlocale_r
 .text.__locale_charset
                0x000000001000f95c       0x24 ../neural_bsp//newlib/nios2-elf/lib\libc.a(lib_a-locale.o)
                0x000000001000f95c                __locale_charset
 .text.__locale_mb_cur_max
                0x000000001000f980       0x20 ../neural_bsp//newlib/nios2-elf/lib\libc.a(lib_a-locale.o)
                0x000000001000f980                __locale_mb_cur_max
 .text.__locale_msgcharset
                0x000000001000f9a0       0x24 ../neural_bsp//newlib/nios2-elf/lib\libc.a(lib_a-locale.o)
                0x000000001000f9a0                __locale_msgcharset
 .text.__locale_cjk_lang
                0x000000001000f9c4       0x20 ../neural_bsp//newlib/nios2-elf/lib\libc.a(lib_a-locale.o)
                0x000000001000f9c4                __locale_cjk_lang
 .text._localeconv_r
                0x000000001000f9e4       0x28 ../neural_bsp//newlib/nios2-elf/lib\libc.a(lib_a-locale.o)
                0x000000001000f9e4                _localeconv_r
 .text.setlocale
                0x000000001000fa0c       0x48 ../neural_bsp//newlib/nios2-elf/lib\libc.a(lib_a-locale.o)
                0x000000001000fa0c                setlocale
 .text.localeconv
                0x000000001000fa54       0x38 ../neural_bsp//newlib/nios2-elf/lib\libc.a(lib_a-locale.o)
                0x000000001000fa54                localeconv
 .text          0x000000001000fa8c        0x0 ../neural_bsp//newlib/nios2-elf/lib\libc.a(lib_a-makebuf.o)
 .text.__smakebuf_r
                0x000000001000fa8c      0x22c ../neural_bsp//newlib/nios2-elf/lib\libc.a(lib_a-makebuf.o)
                0x000000001000fa8c                __smakebuf_r
 .text          0x000000001000fcb8        0x0 ../neural_bsp//newlib/nios2-elf/lib\libc.a(lib_a-memchr.o)
 .text.memchr   0x000000001000fcb8      0x1bc ../neural_bsp//newlib/nios2-elf/lib\libc.a(lib_a-memchr.o)
                0x000000001000fcb8                memchr
 .text          0x000000001000fe74        0x0 ../neural_bsp//newlib/nios2-elf/lib\libc.a(lib_a-memcpy.o)
 .text.memcpy   0x000000001000fe74      0x188 ../neural_bsp//newlib/nios2-elf/lib\libc.a(lib_a-memcpy.o)
                0x000000001000fe74                memcpy
 .text          0x000000001000fffc        0x0 ../neural_bsp//newlib/nios2-elf/lib\libc.a(lib_a-memmove.o)
 .text.memmove  0x000000001000fffc      0x208 ../neural_bsp//newlib/nios2-elf/lib\libc.a(lib_a-memmove.o)
                0x000000001000fffc                memmove
 .text          0x0000000010010204        0x0 ../neural_bsp//newlib/nios2-elf/lib\libc.a(lib_a-mprec.o)
 .text._Balloc  0x0000000010010204      0x130 ../neural_bsp//newlib/nios2-elf/lib\libc.a(lib_a-mprec.o)
                0x0000000010010204                _Balloc
 .text._Bfree   0x0000000010010334       0x7c ../neural_bsp//newlib/nios2-elf/lib\libc.a(lib_a-mprec.o)
                0x0000000010010334                _Bfree
 .text.__multadd
                0x00000000100103b0      0x1ac ../neural_bsp//newlib/nios2-elf/lib\libc.a(lib_a-mprec.o)
                0x00000000100103b0                __multadd
 .text.__s2b    0x000000001001055c      0x18c ../neural_bsp//newlib/nios2-elf/lib\libc.a(lib_a-mprec.o)
                0x000000001001055c                __s2b
 .text.__hi0bits
                0x00000000100106e8       0x90 ../neural_bsp//newlib/nios2-elf/lib\libc.a(lib_a-mprec.o)
                0x00000000100106e8                __hi0bits
 .text.__lo0bits
                0x0000000010010778       0xec ../neural_bsp//newlib/nios2-elf/lib\libc.a(lib_a-mprec.o)
                0x0000000010010778                __lo0bits
 .text.__i2b    0x0000000010010864       0x58 ../neural_bsp//newlib/nios2-elf/lib\libc.a(lib_a-mprec.o)
                0x0000000010010864                __i2b
 .text.__multiply
                0x00000000100108bc      0x3f0 ../neural_bsp//newlib/nios2-elf/lib\libc.a(lib_a-mprec.o)
                0x00000000100108bc                __multiply
 .text.__pow5mult
                0x0000000010010cac      0x178 ../neural_bsp//newlib/nios2-elf/lib\libc.a(lib_a-mprec.o)
                0x0000000010010cac                __pow5mult
 .text.__lshift
                0x0000000010010e24      0x1f8 ../neural_bsp//newlib/nios2-elf/lib\libc.a(lib_a-mprec.o)
                0x0000000010010e24                __lshift
 .text.__mcmp   0x000000001001101c      0x114 ../neural_bsp//newlib/nios2-elf/lib\libc.a(lib_a-mprec.o)
                0x000000001001101c                __mcmp
 .text.__mdiff  0x0000000010011130      0x2a4 ../neural_bsp//newlib/nios2-elf/lib\libc.a(lib_a-mprec.o)
                0x0000000010011130                __mdiff
 .text.__ulp    0x00000000100113d4       0xcc ../neural_bsp//newlib/nios2-elf/lib\libc.a(lib_a-mprec.o)
                0x00000000100113d4                __ulp
 .text.__b2d    0x00000000100114a0      0x204 ../neural_bsp//newlib/nios2-elf/lib\libc.a(lib_a-mprec.o)
                0x00000000100114a0                __b2d
 .text.__d2b    0x00000000100116a4      0x240 ../neural_bsp//newlib/nios2-elf/lib\libc.a(lib_a-mprec.o)
                0x00000000100116a4                __d2b
 .text.__ratio  0x00000000100118e4      0x11c ../neural_bsp//newlib/nios2-elf/lib\libc.a(lib_a-mprec.o)
                0x00000000100118e4                __ratio
 .text._mprec_log10
                0x0000000010011a00       0xb0 ../neural_bsp//newlib/nios2-elf/lib\libc.a(lib_a-mprec.o)
                0x0000000010011a00                _mprec_log10
 .text.__copybits
                0x0000000010011ab0       0xd0 ../neural_bsp//newlib/nios2-elf/lib\libc.a(lib_a-mprec.o)
                0x0000000010011ab0                __copybits
 .text.__any_on
                0x0000000010011b80      0x134 ../neural_bsp//newlib/nios2-elf/lib\libc.a(lib_a-mprec.o)
                0x0000000010011b80                __any_on
 .text          0x0000000010011cb4        0x0 ../neural_bsp//newlib/nios2-elf/lib\libc.a(lib_a-putc.o)
 .text._putc_r  0x0000000010011cb4      0x104 ../neural_bsp//newlib/nios2-elf/lib\libc.a(lib_a-putc.o)
                0x0000000010011cb4                _putc_r
 .text.putc     0x0000000010011db8      0x110 ../neural_bsp//newlib/nios2-elf/lib\libc.a(lib_a-putc.o)
                0x0000000010011db8                putc
 .text          0x0000000010011ec8        0x0 ../neural_bsp//newlib/nios2-elf/lib\libc.a(lib_a-refill.o)
 .text.lflush   0x0000000010011ec8       0x50 ../neural_bsp//newlib/nios2-elf/lib\libc.a(lib_a-refill.o)
 .text.__srefill_r
                0x0000000010011f18      0x25c ../neural_bsp//newlib/nios2-elf/lib\libc.a(lib_a-refill.o)
                0x0000000010011f18                __srefill_r
 .text          0x0000000010012174        0x0 ../neural_bsp//newlib/nios2-elf/lib\libc.a(lib_a-s_copysign.o)
 .text.copysign
                0x0000000010012174       0xb4 ../neural_bsp//newlib/nios2-elf/lib\libc.a(lib_a-s_copysign.o)
                0x0000000010012174                copysign
 .text          0x0000000010012228        0x0 ../neural_bsp//newlib/nios2-elf/lib\libc.a(lib_a-s_finite.o)
 .text.finite   0x0000000010012228       0x58 ../neural_bsp//newlib/nios2-elf/lib\libc.a(lib_a-s_finite.o)
                0x0000000010012228                finite
 .text          0x0000000010012280        0x0 ../neural_bsp//newlib/nios2-elf/lib\libc.a(lib_a-s_fpclassify.o)
 .text.__fpclassifyd
                0x0000000010012280      0x104 ../neural_bsp//newlib/nios2-elf/lib\libc.a(lib_a-s_fpclassify.o)
                0x0000000010012280                __fpclassifyd
 .text          0x0000000010012384        0x0 ../neural_bsp//newlib/nios2-elf/lib\libc.a(lib_a-stdio.o)
 .text.__sread  0x0000000010012384       0x9c ../neural_bsp//newlib/nios2-elf/lib\libc.a(lib_a-stdio.o)
                0x0000000010012384                __sread
 .text.__seofread
                0x0000000010012420       0x30 ../neural_bsp//newlib/nios2-elf/lib\libc.a(lib_a-stdio.o)
                0x0000000010012420                __seofread
 .text.__swrite
                0x0000000010012450       0xb4 ../neural_bsp//newlib/nios2-elf/lib\libc.a(lib_a-stdio.o)
                0x0000000010012450                __swrite
 .text.__sseek  0x0000000010012504       0xa0 ../neural_bsp//newlib/nios2-elf/lib\libc.a(lib_a-stdio.o)
                0x0000000010012504                __sseek
 .text.__sclose
                0x00000000100125a4       0x54 ../neural_bsp//newlib/nios2-elf/lib\libc.a(lib_a-stdio.o)
                0x00000000100125a4                __sclose
 .text          0x00000000100125f8        0x0 ../neural_bsp//newlib/nios2-elf/lib\libc.a(lib_a-strcmp.o)
 .text.strcmp   0x00000000100125f8      0x140 ../neural_bsp//newlib/nios2-elf/lib\libc.a(lib_a-strcmp.o)
                0x00000000100125f8                strcmp
 .text          0x0000000010012738        0x0 ../neural_bsp//newlib/nios2-elf/lib\libc.a(lib_a-vfiprintf.o)
 .text.__sprint_r
                0x0000000010012738      0x13c ../neural_bsp//newlib/nios2-elf/lib\libc.a(lib_a-vfiprintf.o)
                0x0000000010012738                __sprint_r
 .text.__sbprintf
                0x0000000010012874       0xf0 ../neural_bsp//newlib/nios2-elf/lib\libc.a(lib_a-vfiprintf.o)
 .text.__vfiprintf_internal
                0x0000000010012964       0x58 ../neural_bsp//newlib/nios2-elf/lib\libc.a(lib_a-vfiprintf.o)
                0x0000000010012964                __vfiprintf_internal
 .text.___vfiprintf_internal_r
                0x00000000100129bc     0x12dc ../neural_bsp//newlib/nios2-elf/lib\libc.a(lib_a-vfiprintf.o)
                0x00000000100129bc                ___vfiprintf_internal_r
 .text          0x0000000010013c98        0x0 ../neural_bsp//newlib/nios2-elf/lib\libc.a(lib_a-wbuf.o)
 .text.__swbuf_r
                0x0000000010013c98      0x168 ../neural_bsp//newlib/nios2-elf/lib\libc.a(lib_a-wbuf.o)
                0x0000000010013c98                __swbuf_r
 .text.__swbuf  0x0000000010013e00       0x48 ../neural_bsp//newlib/nios2-elf/lib\libc.a(lib_a-wbuf.o)
                0x0000000010013e00                __swbuf
 .text          0x0000000010013e48        0x0 ../neural_bsp//newlib/nios2-elf/lib\libc.a(lib_a-writer.o)
 .text._write_r
                0x0000000010013e48       0x88 ../neural_bsp//newlib/nios2-elf/lib\libc.a(lib_a-writer.o)
                0x0000000010013e48                _write_r
 .text          0x0000000010013ed0        0x0 ../neural_bsp//newlib/nios2-elf/lib\libc.a(closer.o)
 .text._close_r
                0x0000000010013ed0       0x78 ../neural_bsp//newlib/nios2-elf/lib\libc.a(closer.o)
                0x0000000010013ed0                _close_r
 .text          0x0000000010013f48        0x0 ../neural_bsp//newlib/nios2-elf/lib\libc.a(lib_a-fclose.o)
 .text._fclose_r
                0x0000000010013f48      0x12c ../neural_bsp//newlib/nios2-elf/lib\libc.a(lib_a-fclose.o)
                0x0000000010013f48                _fclose_r
 .text.fclose   0x0000000010014074       0x40 ../neural_bsp//newlib/nios2-elf/lib\libc.a(lib_a-fclose.o)
                0x0000000010014074                fclose
 .text          0x00000000100140b4        0x0 ../neural_bsp//newlib/nios2-elf/lib\libc.a(lib_a-fputwc.o)
 .text.__fputwc
                0x00000000100140b4      0x1f4 ../neural_bsp//newlib/nios2-elf/lib\libc.a(lib_a-fputwc.o)
                0x00000000100140b4                __fputwc
 .text._fputwc_r
                0x00000000100142a8       0x88 ../neural_bsp//newlib/nios2-elf/lib\libc.a(lib_a-fputwc.o)
                0x00000000100142a8                _fputwc_r
 .text.fputwc   0x0000000010014330       0x70 ../neural_bsp//newlib/nios2-elf/lib\libc.a(lib_a-fputwc.o)
                0x0000000010014330                fputwc
 .text          0x00000000100143a0        0x0 ../neural_bsp//newlib/nios2-elf/lib\libc.a(lib_a-fstatr.o)
 .text._fstat_r
                0x00000000100143a0       0x80 ../neural_bsp//newlib/nios2-elf/lib\libc.a(lib_a-fstatr.o)
                0x00000000100143a0                _fstat_r
 .text          0x0000000010014420        0x0 ../neural_bsp//newlib/nios2-elf/lib\libc.a(lib_a-isattyr.o)
 .text._isatty_r
                0x0000000010014420       0x78 ../neural_bsp//newlib/nios2-elf/lib\libc.a(lib_a-isattyr.o)
                0x0000000010014420                _isatty_r
 .text          0x0000000010014498        0x0 ../neural_bsp//newlib/nios2-elf/lib\libc.a(lib_a-lseekr.o)
 .text._lseek_r
                0x0000000010014498       0x88 ../neural_bsp//newlib/nios2-elf/lib\libc.a(lib_a-lseekr.o)
                0x0000000010014498                _lseek_r
 .text          0x0000000010014520        0x0 ../neural_bsp//newlib/nios2-elf/lib\libc.a(lib_a-readr.o)
 .text._read_r  0x0000000010014520       0x88 ../neural_bsp//newlib/nios2-elf/lib\libc.a(lib_a-readr.o)
                0x0000000010014520                _read_r
 .text          0x00000000100145a8        0x0 ../neural_bsp//newlib/nios2-elf/lib\libc.a(lib_a-wcrtomb.o)
 .text._wcrtomb_r
                0x00000000100145a8       0xe4 ../neural_bsp//newlib/nios2-elf/lib\libc.a(lib_a-wcrtomb.o)
                0x00000000100145a8                _wcrtomb_r
 .text.wcrtomb  0x000000001001468c       0xf0 ../neural_bsp//newlib/nios2-elf/lib\libc.a(lib_a-wcrtomb.o)
                0x000000001001468c                wcrtomb
 .text          0x000000001001477c        0x0 ../neural_bsp//newlib/nios2-elf/lib\libc.a(lib_a-wctomb_r.o)
 .text._wctomb_r
                0x000000001001477c       0x64 ../neural_bsp//newlib/nios2-elf/lib\libc.a(lib_a-wctomb_r.o)
                0x000000001001477c                _wctomb_r
 .text.__ascii_wctomb
                0x00000000100147e0       0x78 ../neural_bsp//newlib/nios2-elf/lib\libc.a(lib_a-wctomb_r.o)
                0x00000000100147e0                __ascii_wctomb
 .text          0x0000000010014858      0x5fc c:/altera/16.0/nios2eds/bin/gnu/h-x86_64-mingw32/bin/../lib/gcc/nios2-elf/5.2.0/mno-hw-mul\libgcc.a(_udivdi3.o)
                0x0000000010014858                __udivdi3
 .text          0x0000000010014e54      0x5c4 c:/altera/16.0/nios2eds/bin/gnu/h-x86_64-mingw32/bin/../lib/gcc/nios2-elf/5.2.0/mno-hw-mul\libgcc.a(_umoddi3.o)
                0x0000000010014e54                __umoddi3
 .text          0x0000000010015418       0x88 c:/altera/16.0/nios2eds/bin/gnu/h-x86_64-mingw32/bin/../lib/gcc/nios2-elf/5.2.0/mno-hw-mul\libgcc.a(eqdf2.o)
                0x0000000010015418                __nedf2
                0x0000000010015418                __eqdf2
 .text          0x00000000100154a0       0xdc c:/altera/16.0/nios2eds/bin/gnu/h-x86_64-mingw32/bin/../lib/gcc/nios2-elf/5.2.0/mno-hw-mul\libgcc.a(gedf2.o)
                0x00000000100154a0                __gedf2
                0x00000000100154a0                __gtdf2
 .text          0x000000001001557c       0x80 c:/altera/16.0/nios2eds/bin/gnu/h-x86_64-mingw32/bin/../lib/gcc/nios2-elf/5.2.0/mno-hw-mul\libgcc.a(fixdfsi.o)
                0x000000001001557c                __fixdfsi
 .text          0x00000000100155fc       0xdc c:/altera/16.0/nios2eds/bin/gnu/h-x86_64-mingw32/bin/../lib/gcc/nios2-elf/5.2.0/mno-hw-mul\libgcc.a(floatsidf.o)
                0x00000000100155fc                __floatsidf
 .text          0x00000000100156d8       0xa8 c:/altera/16.0/nios2eds/bin/gnu/h-x86_64-mingw32/bin/../lib/gcc/nios2-elf/5.2.0/mno-hw-mul\libgcc.a(floatunsidf.o)
                0x00000000100156d8                __floatunsidf
 .text          0x0000000010015780      0x128 ../neural_bsp/\libhal_bsp.a(alt_close.o)
                0x00000000100157d0                close
 .text          0x00000000100158a8       0x2c ../neural_bsp/\libhal_bsp.a(alt_dev.o)
 .text          0x00000000100158d4        0x0 ../neural_bsp/\libhal_bsp.a(alt_errno.o)
 .text          0x00000000100158d4      0x108 ../neural_bsp/\libhal_bsp.a(alt_fstat.o)
                0x0000000010015924                fstat
 .text          0x00000000100159dc      0x204 ../neural_bsp/\libhal_bsp.a(alt_gettod.o)
                0x00000000100159dc                gettimeofday
 .text          0x0000000010015be0       0xfc ../neural_bsp/\libhal_bsp.a(alt_isatty.o)
                0x0000000010015c30                isatty
 .text          0x0000000010015cdc       0xec ../neural_bsp/\libhal_bsp.a(alt_load.o)
                0x0000000010015d44                alt_load
 .text          0x0000000010015dc8      0x12c ../neural_bsp/\libhal_bsp.a(alt_lseek.o)
                0x0000000010015e18                lseek
 .text          0x0000000010015ef4       0x7c ../neural_bsp/\libhal_bsp.a(alt_main.o)
                0x0000000010015ef4                alt_main
 .text          0x0000000010015f70       0x48 ../neural_bsp/\libhal_bsp.a(alt_malloc_lock.o)
                0x0000000010015f70                __malloc_lock
                0x0000000010015f94                __malloc_unlock
 .text          0x0000000010015fb8      0x154 ../neural_bsp/\libhal_bsp.a(alt_read.o)
                0x0000000010016008                read
 .text          0x000000001001610c       0x84 ../neural_bsp/\libhal_bsp.a(alt_release_fd.o)
                0x000000001001610c                alt_release_fd
 .text          0x0000000010016190       0xb0 ../neural_bsp/\libhal_bsp.a(alt_sbrk.o)
                0x0000000010016190                sbrk
 .text          0x0000000010016240      0x1a4 ../neural_bsp/\libhal_bsp.a(alt_tick.o)
                0x0000000010016240                alt_alarm_stop
                0x00000000100162dc                alt_tick
 .text          0x00000000100163e4      0x150 ../neural_bsp/\libhal_bsp.a(alt_write.o)
                0x0000000010016434                write
 .text          0x0000000010016534       0xc8 ../neural_bsp/\libhal_bsp.a(alt_sys_init.o)
                0x000000001001656c                alt_irq_init
                0x00000000100165a4                alt_sys_init
 .text          0x00000000100165fc      0x164 ../neural_bsp/\libhal_bsp.a(altera_avalon_jtag_uart_fd.o)
                0x00000000100165fc                altera_avalon_jtag_uart_read_fd
                0x000000001001665c                altera_avalon_jtag_uart_write_fd
                0x00000000100166bc                altera_avalon_jtag_uart_close_fd
                0x000000001001670c                altera_avalon_jtag_uart_ioctl_fd
 .text          0x0000000010016760      0x3e4 ../neural_bsp/\libhal_bsp.a(altera_avalon_jtag_uart_init.o)
                0x0000000010016760                altera_avalon_jtag_uart_init
                0x0000000010016adc                altera_avalon_jtag_uart_close
 .text          0x0000000010016b44       0xf0 ../neural_bsp/\libhal_bsp.a(altera_avalon_jtag_uart_ioctl.o)
                0x0000000010016b44                altera_avalon_jtag_uart_ioctl
 .text          0x0000000010016c34      0x21c ../neural_bsp/\libhal_bsp.a(altera_avalon_jtag_uart_read.o)
                0x0000000010016c34                altera_avalon_jtag_uart_read
 .text          0x0000000010016e50      0x224 ../neural_bsp/\libhal_bsp.a(altera_avalon_jtag_uart_write.o)
                0x0000000010016e50                altera_avalon_jtag_uart_write
 .text          0x0000000010017074      0x484 ../neural_bsp/\libhal_bsp.a(altera_hostfs.o)
                0x0000000010017074                alt_hostfs_open
                0x0000000010017190                alt_hostfs_close
                0x00000000100171d4                alt_hostfs_read
                0x0000000010017240                alt_hostfs_write
                0x00000000100172ac                alt_hostfs_seek
                0x0000000010017314                alt_hostfs_fstat
 .text          0x00000000100174f8      0x140 ../neural_bsp/\libhal_bsp.a(alt_alarm_start.o)
                0x00000000100174f8                alt_alarm_start
 .text          0x0000000010017638       0x20 ../neural_bsp/\libhal_bsp.a(alt_dcache_flush_all.o)
                0x0000000010017638                alt_dcache_flush_all
 .text          0x0000000010017658       0xf4 ../neural_bsp/\libhal_bsp.a(alt_dev_llist_insert.o)
                0x00000000100176a8                alt_dev_llist_insert
 .text          0x000000001001774c       0x60 ../neural_bsp/\libhal_bsp.a(alt_do_ctors.o)
                0x000000001001774c                _do_ctors
 .text          0x00000000100177ac       0x60 ../neural_bsp/\libhal_bsp.a(alt_do_dtors.o)
                0x00000000100177ac                _do_dtors
 .text          0x000000001001780c       0x84 ../neural_bsp/\libhal_bsp.a(alt_fs_reg.o)
                0x000000001001780c                alt_fs_reg
 .text          0x0000000010017890       0x20 ../neural_bsp/\libhal_bsp.a(alt_icache_flush_all.o)
                0x0000000010017890                alt_icache_flush_all
 .text          0x00000000100178b0      0x1e0 ../neural_bsp/\libhal_bsp.a(alt_iic.o)
                0x00000000100178b0                alt_ic_isr_register
                0x0000000010017900                alt_ic_irq_enable
                0x00000000100179a0                alt_ic_irq_disable
                0x0000000010017a44                alt_ic_irq_enabled
 .text          0x0000000010017a90       0xf0 ../neural_bsp/\libhal_bsp.a(alt_iic_isr_register.o)
                0x0000000010017a90                alt_iic_isr_register
 .text          0x0000000010017b80      0x160 ../neural_bsp/\libhal_bsp.a(alt_io_redirect.o)
                0x0000000010017c64                alt_io_redirect
 .text          0x0000000010017ce0        0x0 ../neural_bsp/\libhal_bsp.a(alt_irq_entry.o)
 .text          0x0000000010017ce0        0x0 ../neural_bsp/\libhal_bsp.a(alt_irq_handler.o)
 .text          0x0000000010017ce0        0x0 ../neural_bsp/\libhal_bsp.a(alt_irq_vars.o)
 .text          0x0000000010017ce0      0x2a4 ../neural_bsp/\libhal_bsp.a(alt_open.o)
                0x0000000010017e24                open
 .text          0x0000000010017f84       0x24 ../neural_bsp/\libhal_bsp.a(altera_nios2_gen2_irq.o)
                0x0000000010017f84                altera_nios2_gen2_irq_init
 .text          0x0000000010017fa8        0x0 ../neural_bsp/\libhal_bsp.a(alt_exception_entry.o)
 .text          0x0000000010017fa8       0x90 ../neural_bsp/\libhal_bsp.a(alt_find_dev.o)
                0x0000000010017fa8                alt_find_dev
 .text          0x0000000010018038      0x114 ../neural_bsp/\libhal_bsp.a(alt_find_file.o)
                0x0000000010018038                alt_find_file
 .text          0x000000001001814c       0xd4 ../neural_bsp/\libhal_bsp.a(alt_get_fd.o)
                0x000000001001814c                alt_get_fd
 .text          0x0000000010018220       0x9c ../neural_bsp/\libhal_bsp.a(alt_instruction_exception_entry.o)
                0x0000000010018220                alt_exception_cause_generated_bad_addr
 .text          0x00000000100182bc        0x0 ../neural_bsp//newlib/nios2-elf/lib\libc.a(lib_a-atexit.o)
 .text.atexit   0x00000000100182bc       0x3c ../neural_bsp//newlib/nios2-elf/lib\libc.a(lib_a-atexit.o)
                0x00000000100182bc                atexit
 .text          0x00000000100182f8        0x0 ../neural_bsp//newlib/nios2-elf/lib\libc.a(lib_a-exit.o)
 .text.exit     0x00000000100182f8       0x60 ../neural_bsp//newlib/nios2-elf/lib\libc.a(lib_a-exit.o)
                0x00000000100182f8                exit
 .text          0x0000000010018358        0x0 ../neural_bsp//newlib/nios2-elf/lib\libc.a(lib_a-memcmp.o)
 .text.memcmp   0x0000000010018358      0x134 ../neural_bsp//newlib/nios2-elf/lib\libc.a(lib_a-memcmp.o)
                0x0000000010018358                memcmp
 .text          0x000000001001848c        0x0 ../neural_bsp//newlib/nios2-elf/lib\libc.a(lib_a-__atexit.o)
 .text.__register_exitproc
                0x000000001001848c      0x198 ../neural_bsp//newlib/nios2-elf/lib\libc.a(lib_a-__atexit.o)
                0x000000001001848c                __register_exitproc
 .text          0x0000000010018624        0x0 ../neural_bsp//newlib/nios2-elf/lib\libc.a(lib_a-__call_atexit.o)
 .text.__call_exitprocs
                0x0000000010018624      0x1fc ../neural_bsp//newlib/nios2-elf/lib\libc.a(lib_a-__call_atexit.o)
                0x0000000010018624                __call_exitprocs
 .text          0x0000000010018820      0x10c c:/altera/16.0/nios2eds/bin/gnu/h-x86_64-mingw32/bin/../lib/gcc/nios2-elf/5.2.0/mno-hw-mul\libgcc.a(_muldi3.o)
                0x0000000010018820                __muldi3
 .text          0x000000001001892c       0x34 ../neural_bsp/\libhal_bsp.a(alt_exit.o)
                0x000000001001892c                _exit
 *(.gnu.warning.*)
 *(.fini)
                [!provide]                        PROVIDE (__etext, ABSOLUTE (.))
                [!provide]                        PROVIDE (_etext, ABSOLUTE (.))
                [!provide]                        PROVIDE (etext, ABSOLUTE (.))
 *(.eh_frame_hdr)
                0x0000000010018960                . = ALIGN (0x4)
                [!provide]                        PROVIDE (__preinit_array_start, ABSOLUTE (.))
 *(.preinit_array)
                [!provide]                        PROVIDE (__preinit_array_end, ABSOLUTE (.))
                [!provide]                        PROVIDE (__init_array_start, ABSOLUTE (.))
 *(.init_array)
                [!provide]                        PROVIDE (__init_array_end, ABSOLUTE (.))
                [!provide]                        PROVIDE (__fini_array_start, ABSOLUTE (.))
 *(.fini_array)
                [!provide]                        PROVIDE (__fini_array_end, ABSOLUTE (.))
 *(.eh_frame)
 *(.gcc_except_table .gcc_except_table.*)
 *(.dynamic)
                0x0000000010018960                PROVIDE (__CTOR_LIST__, ABSOLUTE (.))
 *(.ctors)
 *(SORT(.ctors.*))
                0x0000000010018960                PROVIDE (__CTOR_END__, ABSOLUTE (.))
                0x0000000010018960                PROVIDE (__DTOR_LIST__, ABSOLUTE (.))
 *(.dtors)
 *(SORT(.dtors.*))
                0x0000000010018960                PROVIDE (__DTOR_END__, ABSOLUTE (.))
 *(.jcr)
                0x0000000010018960                . = ALIGN (0x4)

.rodata         0x0000000010018960    0xb71f4
                0x0000000010018960                PROVIDE (__ram_rodata_start, ABSOLUTE (.))
                0x0000000010018960                . = ALIGN (0x4)
 *(.rodata .rodata.* .gnu.linkonce.r.*)
 .rodata        0x0000000010018960       0x2b obj/default/formula.o
 *fill*         0x000000001001898b        0x1 
 .rodata        0x000000001001898c    0xb6ba6 obj/default/main.o
 *fill*         0x00000000100cf532        0x2 
 .rodata        0x00000000100cf534       0x20 obj/default/types.o
 .rodata        0x00000000100cf554      0x100 c:/altera/16.0/nios2eds/bin/gnu/h-x86_64-mingw32/bin/../lib/gcc/nios2-elf/5.2.0/mno-hw-mul\libgcc.a(_clz.o)
                0x00000000100cf554                __clz_tab
 .rodata        0x00000000100cf654        0x2 ../neural_bsp//newlib/nios2-elf/lib\libc.a(lib_a-impure.o)
 *fill*         0x00000000100cf656        0x2 
 .rodata        0x00000000100cf658        0x2 ../neural_bsp//newlib/nios2-elf/lib\libc.a(lib_a-puts.o)
 *fill*         0x00000000100cf65a        0x2 
 .rodata        0x00000000100cf65c       0x5e ../neural_bsp//newlib/nios2-elf/lib\libc.a(lib_a-vfprintf.o)
 .rodata.blanks.4403
                0x00000000100cf6ba       0x10 ../neural_bsp//newlib/nios2-elf/lib\libc.a(lib_a-vfprintf.o)
 .rodata.zeroes.4404
                0x00000000100cf6ca       0x10 ../neural_bsp//newlib/nios2-elf/lib\libc.a(lib_a-vfprintf.o)
 .rodata._ctype_b
                0x00000000100cf6da      0x180 ../neural_bsp//newlib/nios2-elf/lib\libc.a(lib_a-ctype_.o)
 .rodata._ctype_
                0x00000000100cf85a      0x101 ../neural_bsp//newlib/nios2-elf/lib\libc.a(lib_a-ctype_.o)
                0x00000000100cf85a                _ctype_
 *fill*         0x00000000100cf95b        0x1 
 .rodata        0x00000000100cf95c       0x12 ../neural_bsp//newlib/nios2-elf/lib\libc.a(lib_a-dtoa.o)
 *fill*         0x00000000100cf96e        0x2 
 .rodata        0x00000000100cf970       0x12 ../neural_bsp//newlib/nios2-elf/lib\libc.a(lib_a-locale.o)
 *fill*         0x00000000100cf982        0x2 
 .rodata.__mprec_tens
                0x00000000100cf984       0xc8 ../neural_bsp//newlib/nios2-elf/lib\libc.a(lib_a-mprec.o)
                0x00000000100cf984                __mprec_tens
 .rodata.__mprec_bigtens
                0x00000000100cfa4c       0x28 ../neural_bsp//newlib/nios2-elf/lib\libc.a(lib_a-mprec.o)
                0x00000000100cfa4c                __mprec_bigtens
 .rodata.__mprec_tinytens
                0x00000000100cfa74       0x28 ../neural_bsp//newlib/nios2-elf/lib\libc.a(lib_a-mprec.o)
                0x00000000100cfa74                __mprec_tinytens
 .rodata.p05.2768
                0x00000000100cfa9c        0xc ../neural_bsp//newlib/nios2-elf/lib\libc.a(lib_a-mprec.o)
 .rodata        0x00000000100cfaa8       0x4a ../neural_bsp//newlib/nios2-elf/lib\libc.a(lib_a-vfiprintf.o)
 .rodata.blanks.4348
                0x00000000100cfaf2       0x10 ../neural_bsp//newlib/nios2-elf/lib\libc.a(lib_a-vfiprintf.o)
 .rodata.zeroes.4349
                0x00000000100cfb02       0x10 ../neural_bsp//newlib/nios2-elf/lib\libc.a(lib_a-vfiprintf.o)
 *fill*         0x00000000100cfb12        0x2 
 .rodata        0x00000000100cfb14        0xa ../neural_bsp/\libhal_bsp.a(alt_dev.o)
 *fill*         0x00000000100cfb1e        0x2 
 .rodata        0x00000000100cfb20       0x11 ../neural_bsp/\libhal_bsp.a(alt_main.o)
 *fill*         0x00000000100cfb31        0x3 
 .rodata        0x00000000100cfb34       0x1e ../neural_bsp/\libhal_bsp.a(alt_sys_init.o)
 *(.rodata1)
                0x00000000100cfb54                . = ALIGN (0x4)
 *fill*         0x00000000100cfb52        0x2 
                0x00000000100cfb54                PROVIDE (__ram_rodata_end, ABSOLUTE (.))
                0x0000000010018960                PROVIDE (__flash_rodata_start, LOADADDR (.rodata))

.rwdata         0x00000000100cfb54     0x9888 load address 0x00000000100d93dc
                0x00000000100cfb54                PROVIDE (__ram_rwdata_start, ABSOLUTE (.))
                0x00000000100cfb54                . = ALIGN (0x4)
 *(.got.plt)
 *(.got)
 *(.data1)
 *(.data .data.* .gnu.linkonce.d.*)
 .data          0x00000000100cfb54        0x0 ../neural_bsp//obj/HAL/src/crt0.o
 .data          0x00000000100cfb54        0x0 obj/default/formula.o
 .data          0x00000000100cfb54     0x7d00 obj/default/main.o
                0x00000000100cfb54                training_data
                0x00000000100d68b4                testing_data
 .data          0x00000000100d7854        0x0 obj/default/types.o
 .data          0x00000000100d7854        0x0 c:/altera/16.0/nios2eds/bin/gnu/h-x86_64-mingw32/bin/../lib/gcc/nios2-elf/5.2.0/mno-hw-mul\libgcc.a(_fixunssfsi.o)
 .data          0x00000000100d7854        0x0 c:/altera/16.0/nios2eds/bin/gnu/h-x86_64-mingw32/bin/../lib/gcc/nios2-elf/5.2.0/mno-hw-mul\libgcc.a(lib2-divmod.o)
 .data          0x00000000100d7854        0x0 c:/altera/16.0/nios2eds/bin/gnu/h-x86_64-mingw32/bin/../lib/gcc/nios2-elf/5.2.0/mno-hw-mul\libgcc.a(addsf3.o)
 .data          0x00000000100d7854        0x0 c:/altera/16.0/nios2eds/bin/gnu/h-x86_64-mingw32/bin/../lib/gcc/nios2-elf/5.2.0/mno-hw-mul\libgcc.a(divsf3.o)
 .data          0x00000000100d7854        0x0 c:/altera/16.0/nios2eds/bin/gnu/h-x86_64-mingw32/bin/../lib/gcc/nios2-elf/5.2.0/mno-hw-mul\libgcc.a(eqsf2.o)
 .data          0x00000000100d7854        0x0 c:/altera/16.0/nios2eds/bin/gnu/h-x86_64-mingw32/bin/../lib/gcc/nios2-elf/5.2.0/mno-hw-mul\libgcc.a(gesf2.o)
 .data          0x00000000100d7854        0x0 c:/altera/16.0/nios2eds/bin/gnu/h-x86_64-mingw32/bin/../lib/gcc/nios2-elf/5.2.0/mno-hw-mul\libgcc.a(lesf2.o)
 .data          0x00000000100d7854        0x0 c:/altera/16.0/nios2eds/bin/gnu/h-x86_64-mingw32/bin/../lib/gcc/nios2-elf/5.2.0/mno-hw-mul\libgcc.a(mulsf3.o)
 .data          0x00000000100d7854        0x0 c:/altera/16.0/nios2eds/bin/gnu/h-x86_64-mingw32/bin/../lib/gcc/nios2-elf/5.2.0/mno-hw-mul\libgcc.a(subsf3.o)
 .data          0x00000000100d7854        0x0 c:/altera/16.0/nios2eds/bin/gnu/h-x86_64-mingw32/bin/../lib/gcc/nios2-elf/5.2.0/mno-hw-mul\libgcc.a(fixsfsi.o)
 .data          0x00000000100d7854        0x0 c:/altera/16.0/nios2eds/bin/gnu/h-x86_64-mingw32/bin/../lib/gcc/nios2-elf/5.2.0/mno-hw-mul\libgcc.a(floatsisf.o)
 .data          0x00000000100d7854        0x0 c:/altera/16.0/nios2eds/bin/gnu/h-x86_64-mingw32/bin/../lib/gcc/nios2-elf/5.2.0/mno-hw-mul\libgcc.a(floatunsisf.o)
 .data          0x00000000100d7854        0x0 c:/altera/16.0/nios2eds/bin/gnu/h-x86_64-mingw32/bin/../lib/gcc/nios2-elf/5.2.0/mno-hw-mul\libgcc.a(adddf3.o)
 .data          0x00000000100d7854        0x0 c:/altera/16.0/nios2eds/bin/gnu/h-x86_64-mingw32/bin/../lib/gcc/nios2-elf/5.2.0/mno-hw-mul\libgcc.a(divdf3.o)
 .data          0x00000000100d7854        0x0 c:/altera/16.0/nios2eds/bin/gnu/h-x86_64-mingw32/bin/../lib/gcc/nios2-elf/5.2.0/mno-hw-mul\libgcc.a(ledf2.o)
 .data          0x00000000100d7854        0x0 c:/altera/16.0/nios2eds/bin/gnu/h-x86_64-mingw32/bin/../lib/gcc/nios2-elf/5.2.0/mno-hw-mul\libgcc.a(muldf3.o)
 .data          0x00000000100d7854        0x0 c:/altera/16.0/nios2eds/bin/gnu/h-x86_64-mingw32/bin/../lib/gcc/nios2-elf/5.2.0/mno-hw-mul\libgcc.a(subdf3.o)
 .data          0x00000000100d7854        0x0 c:/altera/16.0/nios2eds/bin/gnu/h-x86_64-mingw32/bin/../lib/gcc/nios2-elf/5.2.0/mno-hw-mul\libgcc.a(extendsfdf2.o)
 .data          0x00000000100d7854        0x0 c:/altera/16.0/nios2eds/bin/gnu/h-x86_64-mingw32/bin/../lib/gcc/nios2-elf/5.2.0/mno-hw-mul\libgcc.a(truncdfsf2.o)
 .data          0x00000000100d7854        0x0 c:/altera/16.0/nios2eds/bin/gnu/h-x86_64-mingw32/bin/../lib/gcc/nios2-elf/5.2.0/mno-hw-mul\libgcc.a(_clzsi2.o)
 .data          0x00000000100d7854        0x0 c:/altera/16.0/nios2eds/bin/gnu/h-x86_64-mingw32/bin/../lib/gcc/nios2-elf/5.2.0/mno-hw-mul\libgcc.a(lib2-mul.o)
 .data          0x00000000100d7854        0x0 c:/altera/16.0/nios2eds/bin/gnu/h-x86_64-mingw32/bin/../lib/gcc/nios2-elf/5.2.0/mno-hw-mul\libgcc.a(_clz.o)
 .data          0x00000000100d7854        0x0 ../neural_bsp//newlib/nios2-elf/lib\libc.a(lib_a-atoi.o)
 .data          0x00000000100d7854        0x0 ../neural_bsp//newlib/nios2-elf/lib\libc.a(lib_a-calloc.o)
 .data          0x00000000100d7854        0x0 ../neural_bsp//newlib/nios2-elf/lib\libc.a(lib_a-callocr.o)
 .data          0x00000000100d7854        0x0 ../neural_bsp//newlib/nios2-elf/lib\libc.a(lib_a-drand48.o)
 .data          0x00000000100d7854        0x0 ../neural_bsp//newlib/nios2-elf/lib\libc.a(lib_a-erand48.o)
 .data          0x00000000100d7854        0x0 ../neural_bsp//newlib/nios2-elf/lib\libc.a(lib_a-getc.o)
 .data          0x00000000100d7854        0x0 ../neural_bsp//newlib/nios2-elf/lib\libc.a(lib_a-impure.o)
 .data.impure_data
                0x00000000100d7854      0x424 ../neural_bsp//newlib/nios2-elf/lib\libc.a(lib_a-impure.o)
 .data          0x00000000100d7c78        0x0 ../neural_bsp//newlib/nios2-elf/lib\libc.a(lib_a-malloc.o)
 .data          0x00000000100d7c78        0x0 ../neural_bsp//newlib/nios2-elf/lib\libc.a(lib_a-mallocr.o)
 .data.__malloc_av_
                0x00000000100d7c78      0x408 ../neural_bsp//newlib/nios2-elf/lib\libc.a(lib_a-mallocr.o)
                0x00000000100d7c78                __malloc_av_
 .data          0x00000000100d8080        0x0 ../neural_bsp//newlib/nios2-elf/lib\libc.a(lib_a-memset.o)
 .data          0x00000000100d8080        0x0 ../neural_bsp//newlib/nios2-elf/lib\libc.a(lib_a-printf.o)
 .data          0x00000000100d8080        0x0 ../neural_bsp//newlib/nios2-elf/lib\libc.a(lib_a-putchar.o)
 .data          0x00000000100d8080        0x0 ../neural_bsp//newlib/nios2-elf/lib\libc.a(lib_a-puts.o)
 .data          0x00000000100d8080        0x0 ../neural_bsp//newlib/nios2-elf/lib\libc.a(lib_a-rand48.o)
 .data          0x00000000100d8080        0x0 ../neural_bsp//newlib/nios2-elf/lib\libc.a(lib_a-realloc.o)
 .data          0x00000000100d8080        0x0 ../neural_bsp//newlib/nios2-elf/lib\libc.a(lib_a-reallocr.o)
 .data          0x00000000100d8080        0x0 ../neural_bsp//newlib/nios2-elf/lib\libc.a(lib_a-rget.o)
 .data          0x00000000100d8080        0x0 ../neural_bsp//newlib/nios2-elf/lib\libc.a(lib_a-s_ldexp.o)
 .data          0x00000000100d8080        0x0 ../neural_bsp//newlib/nios2-elf/lib\libc.a(lib_a-s_scalbn.o)
 .data          0x00000000100d8080        0x0 ../neural_bsp//newlib/nios2-elf/lib\libc.a(lib_a-sbrkr.o)
 .data          0x00000000100d8080        0x0 ../neural_bsp//newlib/nios2-elf/lib\libc.a(lib_a-srand48.o)
 .data          0x00000000100d8080        0x0 ../neural_bsp//newlib/nios2-elf/lib\libc.a(lib_a-strlen.o)
 .data          0x00000000100d8080        0x0 ../neural_bsp//newlib/nios2-elf/lib\libc.a(lib_a-strtol.o)
 .data          0x00000000100d8080        0x0 ../neural_bsp//newlib/nios2-elf/lib\libc.a(lib_a-time.o)
 .data          0x00000000100d8080        0x0 ../neural_bsp//newlib/nios2-elf/lib\libc.a(lib_a-vfprintf.o)
 .data          0x00000000100d8080        0x0 ../neural_bsp//newlib/nios2-elf/lib\libc.a(lib_a-wsetup.o)
 .data          0x00000000100d8080        0x0 ../neural_bsp//newlib/nios2-elf/lib\libc.a(lib_a-ctype_.o)
 .data          0x00000000100d8080        0x0 ../neural_bsp//newlib/nios2-elf/lib\libc.a(lib_a-dtoa.o)
 .data          0x00000000100d8080        0x0 ../neural_bsp//newlib/nios2-elf/lib\libc.a(lib_a-errno.o)
 .data          0x00000000100d8080        0x0 ../neural_bsp//newlib/nios2-elf/lib\libc.a(lib_a-fflush.o)
 .data          0x00000000100d8080        0x0 ../neural_bsp//newlib/nios2-elf/lib\libc.a(lib_a-findfp.o)
 .data          0x00000000100d8080        0x0 ../neural_bsp//newlib/nios2-elf/lib\libc.a(lib_a-freer.o)
 .data          0x00000000100d8080        0x0 ../neural_bsp//newlib/nios2-elf/lib\libc.a(lib_a-fvwrite.o)
 .data          0x00000000100d8080        0x0 ../neural_bsp//newlib/nios2-elf/lib\libc.a(lib_a-fwalk.o)
 .data          0x00000000100d8080        0x0 ../neural_bsp//newlib/nios2-elf/lib\libc.a(lib_a-gettimeofdayr.o)
 .data          0x00000000100d8080        0x0 ../neural_bsp//newlib/nios2-elf/lib\libc.a(lib_a-int_errno.o)
 .data          0x00000000100d8080        0x0 ../neural_bsp//newlib/nios2-elf/lib\libc.a(lib_a-locale.o)
 .data.lconv    0x00000000100d8080       0x38 ../neural_bsp//newlib/nios2-elf/lib\libc.a(lib_a-locale.o)
 .data.lc_ctype_charset
                0x00000000100d80b8       0x20 ../neural_bsp//newlib/nios2-elf/lib\libc.a(lib_a-locale.o)
 .data.lc_message_charset
                0x00000000100d80d8       0x20 ../neural_bsp//newlib/nios2-elf/lib\libc.a(lib_a-locale.o)
 .data          0x00000000100d80f8        0x0 ../neural_bsp//newlib/nios2-elf/lib\libc.a(lib_a-makebuf.o)
 .data          0x00000000100d80f8        0x0 ../neural_bsp//newlib/nios2-elf/lib\libc.a(lib_a-memchr.o)
 .data          0x00000000100d80f8        0x0 ../neural_bsp//newlib/nios2-elf/lib\libc.a(lib_a-memcpy.o)
 .data          0x00000000100d80f8        0x0 ../neural_bsp//newlib/nios2-elf/lib\libc.a(lib_a-memmove.o)
 .data          0x00000000100d80f8        0x0 ../neural_bsp//newlib/nios2-elf/lib\libc.a(lib_a-mprec.o)
 .data          0x00000000100d80f8        0x0 ../neural_bsp//newlib/nios2-elf/lib\libc.a(lib_a-putc.o)
 .data          0x00000000100d80f8        0x0 ../neural_bsp//newlib/nios2-elf/lib\libc.a(lib_a-refill.o)
 .data          0x00000000100d80f8        0x0 ../neural_bsp//newlib/nios2-elf/lib\libc.a(lib_a-s_copysign.o)
 .data          0x00000000100d80f8        0x0 ../neural_bsp//newlib/nios2-elf/lib\libc.a(lib_a-s_finite.o)
 .data          0x00000000100d80f8        0x0 ../neural_bsp//newlib/nios2-elf/lib\libc.a(lib_a-s_fpclassify.o)
 .data          0x00000000100d80f8        0x0 ../neural_bsp//newlib/nios2-elf/lib\libc.a(lib_a-stdio.o)
 .data          0x00000000100d80f8        0x0 ../neural_bsp//newlib/nios2-elf/lib\libc.a(lib_a-strcmp.o)
 .data          0x00000000100d80f8        0x0 ../neural_bsp//newlib/nios2-elf/lib\libc.a(lib_a-vfiprintf.o)
 .data          0x00000000100d80f8        0x0 ../neural_bsp//newlib/nios2-elf/lib\libc.a(lib_a-wbuf.o)
 .data          0x00000000100d80f8        0x0 ../neural_bsp//newlib/nios2-elf/lib\libc.a(lib_a-writer.o)
 .data          0x00000000100d80f8        0x0 ../neural_bsp//newlib/nios2-elf/lib\libc.a(closer.o)
 .data          0x00000000100d80f8        0x0 ../neural_bsp//newlib/nios2-elf/lib\libc.a(lib_a-fclose.o)
 .data          0x00000000100d80f8        0x0 ../neural_bsp//newlib/nios2-elf/lib\libc.a(lib_a-fputwc.o)
 .data          0x00000000100d80f8        0x0 ../neural_bsp//newlib/nios2-elf/lib\libc.a(lib_a-fstatr.o)
 .data          0x00000000100d80f8        0x0 ../neural_bsp//newlib/nios2-elf/lib\libc.a(lib_a-isattyr.o)
 .data          0x00000000100d80f8        0x0 ../neural_bsp//newlib/nios2-elf/lib\libc.a(lib_a-lseekr.o)
 .data          0x00000000100d80f8        0x0 ../neural_bsp//newlib/nios2-elf/lib\libc.a(lib_a-readr.o)
 .data          0x00000000100d80f8        0x0 ../neural_bsp//newlib/nios2-elf/lib\libc.a(lib_a-wcrtomb.o)
 .data          0x00000000100d80f8        0x0 ../neural_bsp//newlib/nios2-elf/lib\libc.a(lib_a-wctomb_r.o)
 .data          0x00000000100d80f8        0x0 c:/altera/16.0/nios2eds/bin/gnu/h-x86_64-mingw32/bin/../lib/gcc/nios2-elf/5.2.0/mno-hw-mul\libgcc.a(_udivdi3.o)
 .data          0x00000000100d80f8        0x0 c:/altera/16.0/nios2eds/bin/gnu/h-x86_64-mingw32/bin/../lib/gcc/nios2-elf/5.2.0/mno-hw-mul\libgcc.a(_umoddi3.o)
 .data          0x00000000100d80f8        0x0 c:/altera/16.0/nios2eds/bin/gnu/h-x86_64-mingw32/bin/../lib/gcc/nios2-elf/5.2.0/mno-hw-mul\libgcc.a(eqdf2.o)
 .data          0x00000000100d80f8        0x0 c:/altera/16.0/nios2eds/bin/gnu/h-x86_64-mingw32/bin/../lib/gcc/nios2-elf/5.2.0/mno-hw-mul\libgcc.a(gedf2.o)
 .data          0x00000000100d80f8        0x0 c:/altera/16.0/nios2eds/bin/gnu/h-x86_64-mingw32/bin/../lib/gcc/nios2-elf/5.2.0/mno-hw-mul\libgcc.a(fixdfsi.o)
 .data          0x00000000100d80f8        0x0 c:/altera/16.0/nios2eds/bin/gnu/h-x86_64-mingw32/bin/../lib/gcc/nios2-elf/5.2.0/mno-hw-mul\libgcc.a(floatsidf.o)
 .data          0x00000000100d80f8        0x0 c:/altera/16.0/nios2eds/bin/gnu/h-x86_64-mingw32/bin/../lib/gcc/nios2-elf/5.2.0/mno-hw-mul\libgcc.a(floatunsidf.o)
 .data          0x00000000100d80f8        0x0 ../neural_bsp/\libhal_bsp.a(alt_close.o)
 .data          0x00000000100d80f8      0x1a8 ../neural_bsp/\libhal_bsp.a(alt_dev.o)
                0x00000000100d80f8                alt_dev_null
                0x00000000100d8120                alt_fd_list
 .data          0x00000000100d82a0        0x0 ../neural_bsp/\libhal_bsp.a(alt_errno.o)
 .data          0x00000000100d82a0        0x0 ../neural_bsp/\libhal_bsp.a(alt_fstat.o)
 .data          0x00000000100d82a0        0x0 ../neural_bsp/\libhal_bsp.a(alt_gettod.o)
 .data          0x00000000100d82a0        0x0 ../neural_bsp/\libhal_bsp.a(alt_isatty.o)
 .data          0x00000000100d82a0        0x0 ../neural_bsp/\libhal_bsp.a(alt_load.o)
 .data          0x00000000100d82a0        0x0 ../neural_bsp/\libhal_bsp.a(alt_lseek.o)
 .data          0x00000000100d82a0        0x0 ../neural_bsp/\libhal_bsp.a(alt_main.o)
 .data          0x00000000100d82a0        0x0 ../neural_bsp/\libhal_bsp.a(alt_malloc_lock.o)
 .data          0x00000000100d82a0        0x0 ../neural_bsp/\libhal_bsp.a(alt_read.o)
 .data          0x00000000100d82a0        0x0 ../neural_bsp/\libhal_bsp.a(alt_release_fd.o)
 .data          0x00000000100d82a0        0x0 ../neural_bsp/\libhal_bsp.a(alt_sbrk.o)
 .data          0x00000000100d82a0        0x0 ../neural_bsp/\libhal_bsp.a(alt_tick.o)
 .data          0x00000000100d82a0        0x0 ../neural_bsp/\libhal_bsp.a(alt_write.o)
 .data          0x00000000100d82a0     0x1088 ../neural_bsp/\libhal_bsp.a(alt_sys_init.o)
 .data          0x00000000100d9328        0x0 ../neural_bsp/\libhal_bsp.a(altera_avalon_jtag_uart_fd.o)
 .data          0x00000000100d9328        0x0 ../neural_bsp/\libhal_bsp.a(altera_avalon_jtag_uart_init.o)
 .data          0x00000000100d9328        0x0 ../neural_bsp/\libhal_bsp.a(altera_avalon_jtag_uart_ioctl.o)
 .data          0x00000000100d9328        0x0 ../neural_bsp/\libhal_bsp.a(altera_avalon_jtag_uart_read.o)
 .data          0x00000000100d9328        0x0 ../neural_bsp/\libhal_bsp.a(altera_avalon_jtag_uart_write.o)
 .data          0x00000000100d9328        0x0 ../neural_bsp/\libhal_bsp.a(altera_hostfs.o)
 .data          0x00000000100d9328        0x0 ../neural_bsp/\libhal_bsp.a(alt_alarm_start.o)
 .data          0x00000000100d9328        0x0 ../neural_bsp/\libhal_bsp.a(alt_dcache_flush_all.o)
 .data          0x00000000100d9328        0x0 ../neural_bsp/\libhal_bsp.a(alt_dev_llist_insert.o)
 .data          0x00000000100d9328        0x0 ../neural_bsp/\libhal_bsp.a(alt_do_ctors.o)
 .data          0x00000000100d9328        0x0 ../neural_bsp/\libhal_bsp.a(alt_do_dtors.o)
 .data          0x00000000100d9328        0x0 ../neural_bsp/\libhal_bsp.a(alt_fs_reg.o)
 .data          0x00000000100d9328        0x0 ../neural_bsp/\libhal_bsp.a(alt_icache_flush_all.o)
 .data          0x00000000100d9328        0x0 ../neural_bsp/\libhal_bsp.a(alt_iic.o)
 .data          0x00000000100d9328        0x0 ../neural_bsp/\libhal_bsp.a(alt_iic_isr_register.o)
 .data          0x00000000100d9328        0x0 ../neural_bsp/\libhal_bsp.a(alt_io_redirect.o)
 .data          0x00000000100d9328        0x0 ../neural_bsp/\libhal_bsp.a(alt_irq_entry.o)
 .data          0x00000000100d9328        0x0 ../neural_bsp/\libhal_bsp.a(alt_irq_handler.o)
 .data          0x00000000100d9328        0x0 ../neural_bsp/\libhal_bsp.a(alt_irq_vars.o)
 .data          0x00000000100d9328        0x0 ../neural_bsp/\libhal_bsp.a(alt_open.o)
 .data          0x00000000100d9328        0x0 ../neural_bsp/\libhal_bsp.a(altera_nios2_gen2_irq.o)
 .data          0x00000000100d9328        0x0 ../neural_bsp/\libhal_bsp.a(alt_exception_entry.o)
 .data          0x00000000100d9328        0x0 ../neural_bsp/\libhal_bsp.a(alt_find_dev.o)
 .data          0x00000000100d9328        0x0 ../neural_bsp/\libhal_bsp.a(alt_find_file.o)
 .data          0x00000000100d9328        0x0 ../neural_bsp/\libhal_bsp.a(alt_get_fd.o)
 .data          0x00000000100d9328        0x0 ../neural_bsp/\libhal_bsp.a(alt_instruction_exception_entry.o)
 .data          0x00000000100d9328        0x0 ../neural_bsp//newlib/nios2-elf/lib\libc.a(lib_a-atexit.o)
 .data          0x00000000100d9328        0x0 ../neural_bsp//newlib/nios2-elf/lib\libc.a(lib_a-exit.o)
 .data          0x00000000100d9328        0x0 ../neural_bsp//newlib/nios2-elf/lib\libc.a(lib_a-memcmp.o)
 .data          0x00000000100d9328        0x0 ../neural_bsp//newlib/nios2-elf/lib\libc.a(lib_a-__atexit.o)
 .data          0x00000000100d9328        0x0 ../neural_bsp//newlib/nios2-elf/lib\libc.a(lib_a-__call_atexit.o)
 .data          0x00000000100d9328        0x0 c:/altera/16.0/nios2eds/bin/gnu/h-x86_64-mingw32/bin/../lib/gcc/nios2-elf/5.2.0/mno-hw-mul\libgcc.a(_muldi3.o)
 .data          0x00000000100d9328        0x0 ../neural_bsp/\libhal_bsp.a(alt_exit.o)
                0x00000000100e1328                _gp = ABSOLUTE ((. + 0x8000))
                [!provide]                        PROVIDE (gp, _gp)
 *(.rwdata .rwdata.*)
 *(.sdata .sdata.* .gnu.linkonce.s.*)
 .sdata         0x00000000100d9328        0x8 obj/default/formula.o
                0x00000000100d9328                to_hw_port
                0x00000000100d932c                to_sw_port
 .sdata._impure_ptr
                0x00000000100d9330        0x4 ../neural_bsp//newlib/nios2-elf/lib\libc.a(lib_a-impure.o)
                0x00000000100d9330                _impure_ptr
 .sdata._global_impure_ptr
                0x00000000100d9334        0x4 ../neural_bsp//newlib/nios2-elf/lib\libc.a(lib_a-impure.o)
                0x00000000100d9334                _global_impure_ptr
 .sdata.__malloc_trim_threshold
                0x00000000100d9338        0x4 ../neural_bsp//newlib/nios2-elf/lib\libc.a(lib_a-mallocr.o)
                0x00000000100d9338                __malloc_trim_threshold
 .sdata.__malloc_sbrk_base
                0x00000000100d933c        0x4 ../neural_bsp//newlib/nios2-elf/lib\libc.a(lib_a-mallocr.o)
                0x00000000100d933c                __malloc_sbrk_base
 .sdata.two54   0x00000000100d9340        0x8 ../neural_bsp//newlib/nios2-elf/lib\libc.a(lib_a-s_scalbn.o)
 .sdata.twom54  0x00000000100d9348        0x8 ../neural_bsp//newlib/nios2-elf/lib\libc.a(lib_a-s_scalbn.o)
 .sdata.huge    0x00000000100d9350        0x8 ../neural_bsp//newlib/nios2-elf/lib\libc.a(lib_a-s_scalbn.o)
 .sdata.tiny    0x00000000100d9358        0x8 ../neural_bsp//newlib/nios2-elf/lib\libc.a(lib_a-s_scalbn.o)
 .sdata.__ctype_ptr__
                0x00000000100d9360        0x4 ../neural_bsp//newlib/nios2-elf/lib\libc.a(lib_a-ctype_.o)
                0x00000000100d9360                __ctype_ptr__
 .sdata.__mb_cur_max
                0x00000000100d9364        0x4 ../neural_bsp//newlib/nios2-elf/lib\libc.a(lib_a-locale.o)
                0x00000000100d9364                __mb_cur_max
 .sdata.__wctomb
                0x00000000100d9368        0x4 ../neural_bsp//newlib/nios2-elf/lib\libc.a(lib_a-wctomb_r.o)
                0x00000000100d9368                __wctomb
 .sdata         0x00000000100d936c       0x14 ../neural_bsp/\libhal_bsp.a(alt_dev.o)
                0x00000000100d936c                alt_fs_list
                0x00000000100d9374                alt_dev_list
                0x00000000100d937c                alt_max_fd
 .sdata         0x00000000100d9380        0x4 ../neural_bsp/\libhal_bsp.a(alt_errno.o)
                0x00000000100d9380                alt_errno
 .sdata         0x00000000100d9384        0x4 ../neural_bsp/\libhal_bsp.a(alt_sbrk.o)
 .sdata         0x00000000100d9388        0x8 ../neural_bsp/\libhal_bsp.a(alt_tick.o)
                0x00000000100d9388                alt_alarm_list
 .sdata         0x00000000100d9390       0x46 ../neural_bsp/\libhal_bsp.a(altera_hostfs.o)
 *fill*         0x00000000100d93d6        0x2 
 .sdata         0x00000000100d93d8        0x4 ../neural_bsp/\libhal_bsp.a(alt_irq_vars.o)
                0x00000000100d93d8                alt_priority_mask
 *(.sdata2 .sdata2.* .gnu.linkonce.s2.*)
                0x00000000100d93dc                . = ALIGN (0x4)
                0x00000000100d93dc                _edata = ABSOLUTE (.)
                [!provide]                        PROVIDE (edata, ABSOLUTE (.))
                0x00000000100d93dc                PROVIDE (__ram_rwdata_end, ABSOLUTE (.))
                0x00000000100d93dc                PROVIDE (__flash_rwdata_start, LOADADDR (.rwdata))

.bss            0x00000000100e2c64      0x1f0
                0x00000000100e2c64                __bss_start = ABSOLUTE (.)
                [!provide]                        PROVIDE (__sbss_start, ABSOLUTE (.))
                [!provide]                        PROVIDE (___sbss_start, ABSOLUTE (.))
 *(.dynsbss)
 *(.sbss .sbss.* .gnu.linkonce.sb.*)
 .sbss          0x00000000100e2c64        0xc obj/default/main.o
                0x00000000100e2c64                total_runs
                0x00000000100e2c68                num_incorrect
                0x00000000100e2c6c                curr_point
 .sbss.__malloc_top_pad
                0x00000000100e2c70        0x4 ../neural_bsp//newlib/nios2-elf/lib\libc.a(lib_a-mallocr.o)
                0x00000000100e2c70                __malloc_top_pad
 .sbss.__malloc_max_sbrked_mem
                0x00000000100e2c74        0x4 ../neural_bsp//newlib/nios2-elf/lib\libc.a(lib_a-mallocr.o)
                0x00000000100e2c74                __malloc_max_sbrked_mem
 .sbss.__malloc_max_total_mem
                0x00000000100e2c78        0x4 ../neural_bsp//newlib/nios2-elf/lib\libc.a(lib_a-mallocr.o)
                0x00000000100e2c78                __malloc_max_total_mem
 .sbss.__sfp_lock
                0x00000000100e2c7c        0x4 ../neural_bsp//newlib/nios2-elf/lib\libc.a(lib_a-findfp.o)
 .sbss.__sinit_lock
                0x00000000100e2c80        0x4 ../neural_bsp//newlib/nios2-elf/lib\libc.a(lib_a-findfp.o)
 .sbss          0x00000000100e2c84        0x4 ../neural_bsp//newlib/nios2-elf/lib\libc.a(lib_a-int_errno.o)
                0x00000000100e2c84                errno
 .sbss.__nlocale_changed
                0x00000000100e2c88        0x4 ../neural_bsp//newlib/nios2-elf/lib\libc.a(lib_a-locale.o)
                0x00000000100e2c88                __nlocale_changed
 .sbss.__mlocale_changed
                0x00000000100e2c8c        0x4 ../neural_bsp//newlib/nios2-elf/lib\libc.a(lib_a-locale.o)
                0x00000000100e2c8c                __mlocale_changed
 .sbss._PathLocale
                0x00000000100e2c90        0x4 ../neural_bsp//newlib/nios2-elf/lib\libc.a(lib_a-locale.o)
                0x00000000100e2c90                _PathLocale
 .sbss.lc_ctype_cjk_lang
                0x00000000100e2c94        0x4 ../neural_bsp//newlib/nios2-elf/lib\libc.a(lib_a-locale.o)
 .sbss          0x00000000100e2c98       0x10 ../neural_bsp/\libhal_bsp.a(alt_gettod.o)
                0x00000000100e2c98                alt_timezone
                0x00000000100e2ca0                alt_resettime
 .sbss          0x00000000100e2ca8        0xc ../neural_bsp/\libhal_bsp.a(alt_main.o)
                0x00000000100e2ca8                alt_argc
                0x00000000100e2cac                alt_argv
                0x00000000100e2cb0                alt_envp
 .sbss          0x00000000100e2cb4        0x8 ../neural_bsp/\libhal_bsp.a(alt_tick.o)
                0x00000000100e2cb4                _alt_tick_rate
                0x00000000100e2cb8                _alt_nticks
 .sbss          0x00000000100e2cbc        0x4 ../neural_bsp/\libhal_bsp.a(alt_irq_vars.o)
                0x00000000100e2cbc                alt_irq_active
 .sbss          0x00000000100e2cc0        0x4 ../neural_bsp/\libhal_bsp.a(alt_instruction_exception_entry.o)
                0x00000000100e2cc0                alt_instruction_exception_handler
 .sbss.__atexit_lock
                0x00000000100e2cc4        0x4 ../neural_bsp//newlib/nios2-elf/lib\libc.a(lib_a-__call_atexit.o)
 *(.sbss2 .sbss2.* .gnu.linkonce.sb2.*)
 *(.scommon)
                [!provide]                        PROVIDE (__sbss_end, ABSOLUTE (.))
                [!provide]                        PROVIDE (___sbss_end, ABSOLUTE (.))
 *(.dynbss)
 *(.bss .bss.* .gnu.linkonce.b.*)
 .bss           0x00000000100e2cc8        0x0 ../neural_bsp//obj/HAL/src/crt0.o
 .bss           0x00000000100e2cc8        0x0 obj/default/formula.o
 .bss           0x00000000100e2cc8        0x0 obj/default/main.o
 .bss           0x00000000100e2cc8        0x0 obj/default/types.o
 .bss           0x00000000100e2cc8        0x0 c:/altera/16.0/nios2eds/bin/gnu/h-x86_64-mingw32/bin/../lib/gcc/nios2-elf/5.2.0/mno-hw-mul\libgcc.a(_fixunssfsi.o)
 .bss           0x00000000100e2cc8        0x0 c:/altera/16.0/nios2eds/bin/gnu/h-x86_64-mingw32/bin/../lib/gcc/nios2-elf/5.2.0/mno-hw-mul\libgcc.a(lib2-divmod.o)
 .bss           0x00000000100e2cc8        0x0 c:/altera/16.0/nios2eds/bin/gnu/h-x86_64-mingw32/bin/../lib/gcc/nios2-elf/5.2.0/mno-hw-mul\libgcc.a(addsf3.o)
 .bss           0x00000000100e2cc8        0x0 c:/altera/16.0/nios2eds/bin/gnu/h-x86_64-mingw32/bin/../lib/gcc/nios2-elf/5.2.0/mno-hw-mul\libgcc.a(divsf3.o)
 .bss           0x00000000100e2cc8        0x0 c:/altera/16.0/nios2eds/bin/gnu/h-x86_64-mingw32/bin/../lib/gcc/nios2-elf/5.2.0/mno-hw-mul\libgcc.a(eqsf2.o)
 .bss           0x00000000100e2cc8        0x0 c:/altera/16.0/nios2eds/bin/gnu/h-x86_64-mingw32/bin/../lib/gcc/nios2-elf/5.2.0/mno-hw-mul\libgcc.a(gesf2.o)
 .bss           0x00000000100e2cc8        0x0 c:/altera/16.0/nios2eds/bin/gnu/h-x86_64-mingw32/bin/../lib/gcc/nios2-elf/5.2.0/mno-hw-mul\libgcc.a(lesf2.o)
 .bss           0x00000000100e2cc8        0x0 c:/altera/16.0/nios2eds/bin/gnu/h-x86_64-mingw32/bin/../lib/gcc/nios2-elf/5.2.0/mno-hw-mul\libgcc.a(mulsf3.o)
 .bss           0x00000000100e2cc8        0x0 c:/altera/16.0/nios2eds/bin/gnu/h-x86_64-mingw32/bin/../lib/gcc/nios2-elf/5.2.0/mno-hw-mul\libgcc.a(subsf3.o)
 .bss           0x00000000100e2cc8        0x0 c:/altera/16.0/nios2eds/bin/gnu/h-x86_64-mingw32/bin/../lib/gcc/nios2-elf/5.2.0/mno-hw-mul\libgcc.a(fixsfsi.o)
 .bss           0x00000000100e2cc8        0x0 c:/altera/16.0/nios2eds/bin/gnu/h-x86_64-mingw32/bin/../lib/gcc/nios2-elf/5.2.0/mno-hw-mul\libgcc.a(floatsisf.o)
 .bss           0x00000000100e2cc8        0x0 c:/altera/16.0/nios2eds/bin/gnu/h-x86_64-mingw32/bin/../lib/gcc/nios2-elf/5.2.0/mno-hw-mul\libgcc.a(floatunsisf.o)
 .bss           0x00000000100e2cc8        0x0 c:/altera/16.0/nios2eds/bin/gnu/h-x86_64-mingw32/bin/../lib/gcc/nios2-elf/5.2.0/mno-hw-mul\libgcc.a(adddf3.o)
 .bss           0x00000000100e2cc8        0x0 c:/altera/16.0/nios2eds/bin/gnu/h-x86_64-mingw32/bin/../lib/gcc/nios2-elf/5.2.0/mno-hw-mul\libgcc.a(divdf3.o)
 .bss           0x00000000100e2cc8        0x0 c:/altera/16.0/nios2eds/bin/gnu/h-x86_64-mingw32/bin/../lib/gcc/nios2-elf/5.2.0/mno-hw-mul\libgcc.a(ledf2.o)
 .bss           0x00000000100e2cc8        0x0 c:/altera/16.0/nios2eds/bin/gnu/h-x86_64-mingw32/bin/../lib/gcc/nios2-elf/5.2.0/mno-hw-mul\libgcc.a(muldf3.o)
 .bss           0x00000000100e2cc8        0x0 c:/altera/16.0/nios2eds/bin/gnu/h-x86_64-mingw32/bin/../lib/gcc/nios2-elf/5.2.0/mno-hw-mul\libgcc.a(subdf3.o)
 .bss           0x00000000100e2cc8        0x0 c:/altera/16.0/nios2eds/bin/gnu/h-x86_64-mingw32/bin/../lib/gcc/nios2-elf/5.2.0/mno-hw-mul\libgcc.a(extendsfdf2.o)
 .bss           0x00000000100e2cc8        0x0 c:/altera/16.0/nios2eds/bin/gnu/h-x86_64-mingw32/bin/../lib/gcc/nios2-elf/5.2.0/mno-hw-mul\libgcc.a(truncdfsf2.o)
 .bss           0x00000000100e2cc8        0x0 c:/altera/16.0/nios2eds/bin/gnu/h-x86_64-mingw32/bin/../lib/gcc/nios2-elf/5.2.0/mno-hw-mul\libgcc.a(_clzsi2.o)
 .bss           0x00000000100e2cc8        0x0 c:/altera/16.0/nios2eds/bin/gnu/h-x86_64-mingw32/bin/../lib/gcc/nios2-elf/5.2.0/mno-hw-mul\libgcc.a(lib2-mul.o)
 .bss           0x00000000100e2cc8        0x0 c:/altera/16.0/nios2eds/bin/gnu/h-x86_64-mingw32/bin/../lib/gcc/nios2-elf/5.2.0/mno-hw-mul\libgcc.a(_clz.o)
 .bss           0x00000000100e2cc8        0x0 ../neural_bsp//newlib/nios2-elf/lib\libc.a(lib_a-atoi.o)
 .bss           0x00000000100e2cc8        0x0 ../neural_bsp//newlib/nios2-elf/lib\libc.a(lib_a-calloc.o)
 .bss           0x00000000100e2cc8        0x0 ../neural_bsp//newlib/nios2-elf/lib\libc.a(lib_a-callocr.o)
 .bss           0x00000000100e2cc8        0x0 ../neural_bsp//newlib/nios2-elf/lib\libc.a(lib_a-drand48.o)
 .bss           0x00000000100e2cc8        0x0 ../neural_bsp//newlib/nios2-elf/lib\libc.a(lib_a-erand48.o)
 .bss           0x00000000100e2cc8        0x0 ../neural_bsp//newlib/nios2-elf/lib\libc.a(lib_a-getc.o)
 .bss           0x00000000100e2cc8        0x0 ../neural_bsp//newlib/nios2-elf/lib\libc.a(lib_a-impure.o)
 .bss           0x00000000100e2cc8        0x0 ../neural_bsp//newlib/nios2-elf/lib\libc.a(lib_a-malloc.o)
 .bss           0x00000000100e2cc8        0x0 ../neural_bsp//newlib/nios2-elf/lib\libc.a(lib_a-mallocr.o)
 .bss.__malloc_current_mallinfo
                0x00000000100e2cc8       0x28 ../neural_bsp//newlib/nios2-elf/lib\libc.a(lib_a-mallocr.o)
                0x00000000100e2cc8                __malloc_current_mallinfo
 .bss           0x00000000100e2cf0        0x0 ../neural_bsp//newlib/nios2-elf/lib\libc.a(lib_a-memset.o)
 .bss           0x00000000100e2cf0        0x0 ../neural_bsp//newlib/nios2-elf/lib\libc.a(lib_a-printf.o)
 .bss           0x00000000100e2cf0        0x0 ../neural_bsp//newlib/nios2-elf/lib\libc.a(lib_a-putchar.o)
 .bss           0x00000000100e2cf0        0x0 ../neural_bsp//newlib/nios2-elf/lib\libc.a(lib_a-puts.o)
 .bss           0x00000000100e2cf0        0x0 ../neural_bsp//newlib/nios2-elf/lib\libc.a(lib_a-rand48.o)
 .bss           0x00000000100e2cf0        0x0 ../neural_bsp//newlib/nios2-elf/lib\libc.a(lib_a-realloc.o)
 .bss           0x00000000100e2cf0        0x0 ../neural_bsp//newlib/nios2-elf/lib\libc.a(lib_a-reallocr.o)
 .bss           0x00000000100e2cf0        0x0 ../neural_bsp//newlib/nios2-elf/lib\libc.a(lib_a-rget.o)
 .bss           0x00000000100e2cf0        0x0 ../neural_bsp//newlib/nios2-elf/lib\libc.a(lib_a-s_ldexp.o)
 .bss           0x00000000100e2cf0        0x0 ../neural_bsp//newlib/nios2-elf/lib\libc.a(lib_a-s_scalbn.o)
 .bss           0x00000000100e2cf0        0x0 ../neural_bsp//newlib/nios2-elf/lib\libc.a(lib_a-sbrkr.o)
 .bss           0x00000000100e2cf0        0x0 ../neural_bsp//newlib/nios2-elf/lib\libc.a(lib_a-srand48.o)
 .bss           0x00000000100e2cf0        0x0 ../neural_bsp//newlib/nios2-elf/lib\libc.a(lib_a-strlen.o)
 .bss           0x00000000100e2cf0        0x0 ../neural_bsp//newlib/nios2-elf/lib\libc.a(lib_a-strtol.o)
 .bss           0x00000000100e2cf0        0x0 ../neural_bsp//newlib/nios2-elf/lib\libc.a(lib_a-time.o)
 .bss           0x00000000100e2cf0        0x0 ../neural_bsp//newlib/nios2-elf/lib\libc.a(lib_a-vfprintf.o)
 .bss           0x00000000100e2cf0        0x0 ../neural_bsp//newlib/nios2-elf/lib\libc.a(lib_a-wsetup.o)
 .bss           0x00000000100e2cf0        0x0 ../neural_bsp//newlib/nios2-elf/lib\libc.a(lib_a-ctype_.o)
 .bss           0x00000000100e2cf0        0x0 ../neural_bsp//newlib/nios2-elf/lib\libc.a(lib_a-dtoa.o)
 .bss           0x00000000100e2cf0        0x0 ../neural_bsp//newlib/nios2-elf/lib\libc.a(lib_a-errno.o)
 .bss           0x00000000100e2cf0        0x0 ../neural_bsp//newlib/nios2-elf/lib\libc.a(lib_a-fflush.o)
 .bss           0x00000000100e2cf0        0x0 ../neural_bsp//newlib/nios2-elf/lib\libc.a(lib_a-findfp.o)
 .bss           0x00000000100e2cf0        0x0 ../neural_bsp//newlib/nios2-elf/lib\libc.a(lib_a-freer.o)
 .bss           0x00000000100e2cf0        0x0 ../neural_bsp//newlib/nios2-elf/lib\libc.a(lib_a-fvwrite.o)
 .bss           0x00000000100e2cf0        0x0 ../neural_bsp//newlib/nios2-elf/lib\libc.a(lib_a-fwalk.o)
 .bss           0x00000000100e2cf0        0x0 ../neural_bsp//newlib/nios2-elf/lib\libc.a(lib_a-gettimeofdayr.o)
 .bss           0x00000000100e2cf0        0x0 ../neural_bsp//newlib/nios2-elf/lib\libc.a(lib_a-int_errno.o)
 .bss           0x00000000100e2cf0        0x0 ../neural_bsp//newlib/nios2-elf/lib\libc.a(lib_a-locale.o)
 .bss           0x00000000100e2cf0        0x0 ../neural_bsp//newlib/nios2-elf/lib\libc.a(lib_a-makebuf.o)
 .bss           0x00000000100e2cf0        0x0 ../neural_bsp//newlib/nios2-elf/lib\libc.a(lib_a-memchr.o)
 .bss           0x00000000100e2cf0        0x0 ../neural_bsp//newlib/nios2-elf/lib\libc.a(lib_a-memcpy.o)
 .bss           0x00000000100e2cf0        0x0 ../neural_bsp//newlib/nios2-elf/lib\libc.a(lib_a-memmove.o)
 .bss           0x00000000100e2cf0        0x0 ../neural_bsp//newlib/nios2-elf/lib\libc.a(lib_a-mprec.o)
 .bss           0x00000000100e2cf0        0x0 ../neural_bsp//newlib/nios2-elf/lib\libc.a(lib_a-putc.o)
 .bss           0x00000000100e2cf0        0x0 ../neural_bsp//newlib/nios2-elf/lib\libc.a(lib_a-refill.o)
 .bss           0x00000000100e2cf0        0x0 ../neural_bsp//newlib/nios2-elf/lib\libc.a(lib_a-s_copysign.o)
 .bss           0x00000000100e2cf0        0x0 ../neural_bsp//newlib/nios2-elf/lib\libc.a(lib_a-s_finite.o)
 .bss           0x00000000100e2cf0        0x0 ../neural_bsp//newlib/nios2-elf/lib\libc.a(lib_a-s_fpclassify.o)
 .bss           0x00000000100e2cf0        0x0 ../neural_bsp//newlib/nios2-elf/lib\libc.a(lib_a-stdio.o)
 .bss           0x00000000100e2cf0        0x0 ../neural_bsp//newlib/nios2-elf/lib\libc.a(lib_a-strcmp.o)
 .bss           0x00000000100e2cf0        0x0 ../neural_bsp//newlib/nios2-elf/lib\libc.a(lib_a-vfiprintf.o)
 .bss           0x00000000100e2cf0        0x0 ../neural_bsp//newlib/nios2-elf/lib\libc.a(lib_a-wbuf.o)
 .bss           0x00000000100e2cf0        0x0 ../neural_bsp//newlib/nios2-elf/lib\libc.a(lib_a-writer.o)
 .bss           0x00000000100e2cf0        0x0 ../neural_bsp//newlib/nios2-elf/lib\libc.a(closer.o)
 .bss           0x00000000100e2cf0        0x0 ../neural_bsp//newlib/nios2-elf/lib\libc.a(lib_a-fclose.o)
 .bss           0x00000000100e2cf0        0x0 ../neural_bsp//newlib/nios2-elf/lib\libc.a(lib_a-fputwc.o)
 .bss           0x00000000100e2cf0        0x0 ../neural_bsp//newlib/nios2-elf/lib\libc.a(lib_a-fstatr.o)
 .bss           0x00000000100e2cf0        0x0 ../neural_bsp//newlib/nios2-elf/lib\libc.a(lib_a-isattyr.o)
 .bss           0x00000000100e2cf0        0x0 ../neural_bsp//newlib/nios2-elf/lib\libc.a(lib_a-lseekr.o)
 .bss           0x00000000100e2cf0        0x0 ../neural_bsp//newlib/nios2-elf/lib\libc.a(lib_a-readr.o)
 .bss           0x00000000100e2cf0        0x0 ../neural_bsp//newlib/nios2-elf/lib\libc.a(lib_a-wcrtomb.o)
 .bss           0x00000000100e2cf0        0x0 ../neural_bsp//newlib/nios2-elf/lib\libc.a(lib_a-wctomb_r.o)
 .bss           0x00000000100e2cf0        0x0 c:/altera/16.0/nios2eds/bin/gnu/h-x86_64-mingw32/bin/../lib/gcc/nios2-elf/5.2.0/mno-hw-mul\libgcc.a(_udivdi3.o)
 .bss           0x00000000100e2cf0        0x0 c:/altera/16.0/nios2eds/bin/gnu/h-x86_64-mingw32/bin/../lib/gcc/nios2-elf/5.2.0/mno-hw-mul\libgcc.a(_umoddi3.o)
 .bss           0x00000000100e2cf0        0x0 c:/altera/16.0/nios2eds/bin/gnu/h-x86_64-mingw32/bin/../lib/gcc/nios2-elf/5.2.0/mno-hw-mul\libgcc.a(eqdf2.o)
 .bss           0x00000000100e2cf0        0x0 c:/altera/16.0/nios2eds/bin/gnu/h-x86_64-mingw32/bin/../lib/gcc/nios2-elf/5.2.0/mno-hw-mul\libgcc.a(gedf2.o)
 .bss           0x00000000100e2cf0        0x0 c:/altera/16.0/nios2eds/bin/gnu/h-x86_64-mingw32/bin/../lib/gcc/nios2-elf/5.2.0/mno-hw-mul\libgcc.a(fixdfsi.o)
 .bss           0x00000000100e2cf0        0x0 c:/altera/16.0/nios2eds/bin/gnu/h-x86_64-mingw32/bin/../lib/gcc/nios2-elf/5.2.0/mno-hw-mul\libgcc.a(floatsidf.o)
 .bss           0x00000000100e2cf0        0x0 c:/altera/16.0/nios2eds/bin/gnu/h-x86_64-mingw32/bin/../lib/gcc/nios2-elf/5.2.0/mno-hw-mul\libgcc.a(floatunsidf.o)
 .bss           0x00000000100e2cf0        0x0 ../neural_bsp/\libhal_bsp.a(alt_close.o)
 .bss           0x00000000100e2cf0        0x0 ../neural_bsp/\libhal_bsp.a(alt_dev.o)
 .bss           0x00000000100e2cf0        0x0 ../neural_bsp/\libhal_bsp.a(alt_errno.o)
 .bss           0x00000000100e2cf0        0x0 ../neural_bsp/\libhal_bsp.a(alt_fstat.o)
 .bss           0x00000000100e2cf0        0x0 ../neural_bsp/\libhal_bsp.a(alt_gettod.o)
 .bss           0x00000000100e2cf0        0x0 ../neural_bsp/\libhal_bsp.a(alt_isatty.o)
 .bss           0x00000000100e2cf0        0x0 ../neural_bsp/\libhal_bsp.a(alt_load.o)
 .bss           0x00000000100e2cf0        0x0 ../neural_bsp/\libhal_bsp.a(alt_lseek.o)
 .bss           0x00000000100e2cf0        0x0 ../neural_bsp/\libhal_bsp.a(alt_main.o)
 .bss           0x00000000100e2cf0        0x0 ../neural_bsp/\libhal_bsp.a(alt_malloc_lock.o)
 .bss           0x00000000100e2cf0        0x0 ../neural_bsp/\libhal_bsp.a(alt_read.o)
 .bss           0x00000000100e2cf0        0x0 ../neural_bsp/\libhal_bsp.a(alt_release_fd.o)
 .bss           0x00000000100e2cf0        0x0 ../neural_bsp/\libhal_bsp.a(alt_sbrk.o)
 .bss           0x00000000100e2cf0        0x0 ../neural_bsp/\libhal_bsp.a(alt_tick.o)
 .bss           0x00000000100e2cf0        0x0 ../neural_bsp/\libhal_bsp.a(alt_write.o)
 .bss           0x00000000100e2cf0        0x0 ../neural_bsp/\libhal_bsp.a(alt_sys_init.o)
 .bss           0x00000000100e2cf0        0x0 ../neural_bsp/\libhal_bsp.a(altera_avalon_jtag_uart_fd.o)
 .bss           0x00000000100e2cf0        0x0 ../neural_bsp/\libhal_bsp.a(altera_avalon_jtag_uart_init.o)
 .bss           0x00000000100e2cf0        0x0 ../neural_bsp/\libhal_bsp.a(altera_avalon_jtag_uart_ioctl.o)
 .bss           0x00000000100e2cf0        0x0 ../neural_bsp/\libhal_bsp.a(altera_avalon_jtag_uart_read.o)
 .bss           0x00000000100e2cf0        0x0 ../neural_bsp/\libhal_bsp.a(altera_avalon_jtag_uart_write.o)
 .bss           0x00000000100e2cf0        0x0 ../neural_bsp/\libhal_bsp.a(altera_hostfs.o)
 .bss           0x00000000100e2cf0        0x0 ../neural_bsp/\libhal_bsp.a(alt_alarm_start.o)
 .bss           0x00000000100e2cf0        0x0 ../neural_bsp/\libhal_bsp.a(alt_dcache_flush_all.o)
 .bss           0x00000000100e2cf0        0x0 ../neural_bsp/\libhal_bsp.a(alt_dev_llist_insert.o)
 .bss           0x00000000100e2cf0        0x0 ../neural_bsp/\libhal_bsp.a(alt_do_ctors.o)
 .bss           0x00000000100e2cf0        0x0 ../neural_bsp/\libhal_bsp.a(alt_do_dtors.o)
 .bss           0x00000000100e2cf0        0x0 ../neural_bsp/\libhal_bsp.a(alt_fs_reg.o)
 .bss           0x00000000100e2cf0        0x0 ../neural_bsp/\libhal_bsp.a(alt_icache_flush_all.o)
 .bss           0x00000000100e2cf0        0x0 ../neural_bsp/\libhal_bsp.a(alt_iic.o)
 .bss           0x00000000100e2cf0        0x0 ../neural_bsp/\libhal_bsp.a(alt_iic_isr_register.o)
 .bss           0x00000000100e2cf0        0x0 ../neural_bsp/\libhal_bsp.a(alt_io_redirect.o)
 .bss           0x00000000100e2cf0        0x0 ../neural_bsp/\libhal_bsp.a(alt_irq_entry.o)
 .bss           0x00000000100e2cf0        0x0 ../neural_bsp/\libhal_bsp.a(alt_irq_handler.o)
 .bss           0x00000000100e2cf0        0x0 ../neural_bsp/\libhal_bsp.a(alt_irq_vars.o)
 .bss           0x00000000100e2cf0        0x0 ../neural_bsp/\libhal_bsp.a(alt_open.o)
 .bss           0x00000000100e2cf0        0x0 ../neural_bsp/\libhal_bsp.a(altera_nios2_gen2_irq.o)
 .bss           0x00000000100e2cf0        0x0 ../neural_bsp/\libhal_bsp.a(alt_exception_entry.o)
 .bss           0x00000000100e2cf0        0x0 ../neural_bsp/\libhal_bsp.a(alt_find_dev.o)
 .bss           0x00000000100e2cf0        0x0 ../neural_bsp/\libhal_bsp.a(alt_find_file.o)
 .bss           0x00000000100e2cf0        0x0 ../neural_bsp/\libhal_bsp.a(alt_get_fd.o)
 .bss           0x00000000100e2cf0        0x0 ../neural_bsp/\libhal_bsp.a(alt_instruction_exception_entry.o)
 .bss           0x00000000100e2cf0        0x0 ../neural_bsp//newlib/nios2-elf/lib\libc.a(lib_a-atexit.o)
 .bss           0x00000000100e2cf0        0x0 ../neural_bsp//newlib/nios2-elf/lib\libc.a(lib_a-exit.o)
 .bss           0x00000000100e2cf0        0x0 ../neural_bsp//newlib/nios2-elf/lib\libc.a(lib_a-memcmp.o)
 .bss           0x00000000100e2cf0        0x0 ../neural_bsp//newlib/nios2-elf/lib\libc.a(lib_a-__atexit.o)
 .bss           0x00000000100e2cf0        0x0 ../neural_bsp//newlib/nios2-elf/lib\libc.a(lib_a-__call_atexit.o)
 .bss           0x00000000100e2cf0        0x0 c:/altera/16.0/nios2eds/bin/gnu/h-x86_64-mingw32/bin/../lib/gcc/nios2-elf/5.2.0/mno-hw-mul\libgcc.a(_muldi3.o)
 .bss           0x00000000100e2cf0        0x0 ../neural_bsp/\libhal_bsp.a(alt_exit.o)
 *(COMMON)
 COMMON         0x00000000100e2cf0       0x64 obj/default/main.o
                0x00000000100e2cf0                layer_2
                0x00000000100e2d18                layer_1
                0x00000000100e2d3c                target_vals
                0x00000000100e2d48                attr_vals
 COMMON         0x00000000100e2d54      0x100 ../neural_bsp/\libhal_bsp.a(alt_irq_handler.o)
                0x00000000100e2d54                alt_irq
                0x00000000100e2e54                . = ALIGN (0x4)
                0x00000000100e2e54                __bss_end = ABSOLUTE (.)

.onchip_memory2_0
                0x0000000000000000        0x0 load address 0x00000000100e2e54
                [!provide]                        PROVIDE (_alt_partition_onchip_memory2_0_start, ABSOLUTE (.))
 *(.onchip_memory2_0 .onchip_memory2_0. onchip_memory2_0.*)
                0x0000000000000000                . = ALIGN (0x4)
                [!provide]                        PROVIDE (_alt_partition_onchip_memory2_0_end, ABSOLUTE (.))
                [!provide]                        PROVIDE (_alt_partition_onchip_memory2_0_load_addr, LOADADDR (.onchip_memory2_0))

.sdram          0x00000000100e2e54        0x0
                [!provide]                        PROVIDE (_alt_partition_sdram_start, ABSOLUTE (.))
 *(.sdram .sdram. sdram.*)
                0x00000000100e2e54                . = ALIGN (0x4)
                [!provide]                        PROVIDE (_alt_partition_sdram_end, ABSOLUTE (.))
                0x00000000100e2e54                _end = ABSOLUTE (.)
                0x00000000100e2e54                end = ABSOLUTE (.)
                0x00000000100e2e54                __alt_stack_base = ABSOLUTE (.)
                [!provide]                        PROVIDE (_alt_partition_sdram_load_addr, LOADADDR (.sdram))

.stab
 *(.stab)

.stabstr
 *(.stabstr)

.stab.excl
 *(.stab.excl)

.stab.exclstr
 *(.stab.exclstr)

.stab.index
 *(.stab.index)

.stab.indexstr
 *(.stab.indexstr)

.comment        0x0000000000000000       0x23
 *(.comment)
 .comment       0x0000000000000000       0x23 obj/default/formula.o
                                         0x24 (size before relaxing)
 .comment       0x0000000000000023       0x24 obj/default/main.o
 .comment       0x0000000000000023       0x24 obj/default/types.o
 .comment       0x0000000000000023       0x24 c:/altera/16.0/nios2eds/bin/gnu/h-x86_64-mingw32/bin/../lib/gcc/nios2-elf/5.2.0/mno-hw-mul\libgcc.a(_fixunssfsi.o)
 .comment       0x0000000000000023       0x24 c:/altera/16.0/nios2eds/bin/gnu/h-x86_64-mingw32/bin/../lib/gcc/nios2-elf/5.2.0/mno-hw-mul\libgcc.a(lib2-divmod.o)
 .comment       0x0000000000000023       0x24 c:/altera/16.0/nios2eds/bin/gnu/h-x86_64-mingw32/bin/../lib/gcc/nios2-elf/5.2.0/mno-hw-mul\libgcc.a(addsf3.o)
 .comment       0x0000000000000023       0x24 c:/altera/16.0/nios2eds/bin/gnu/h-x86_64-mingw32/bin/../lib/gcc/nios2-elf/5.2.0/mno-hw-mul\libgcc.a(divsf3.o)
 .comment       0x0000000000000023       0x24 c:/altera/16.0/nios2eds/bin/gnu/h-x86_64-mingw32/bin/../lib/gcc/nios2-elf/5.2.0/mno-hw-mul\libgcc.a(eqsf2.o)
 .comment       0x0000000000000023       0x24 c:/altera/16.0/nios2eds/bin/gnu/h-x86_64-mingw32/bin/../lib/gcc/nios2-elf/5.2.0/mno-hw-mul\libgcc.a(gesf2.o)
 .comment       0x0000000000000023       0x24 c:/altera/16.0/nios2eds/bin/gnu/h-x86_64-mingw32/bin/../lib/gcc/nios2-elf/5.2.0/mno-hw-mul\libgcc.a(lesf2.o)
 .comment       0x0000000000000023       0x24 c:/altera/16.0/nios2eds/bin/gnu/h-x86_64-mingw32/bin/../lib/gcc/nios2-elf/5.2.0/mno-hw-mul\libgcc.a(mulsf3.o)
 .comment       0x0000000000000023       0x24 c:/altera/16.0/nios2eds/bin/gnu/h-x86_64-mingw32/bin/../lib/gcc/nios2-elf/5.2.0/mno-hw-mul\libgcc.a(subsf3.o)
 .comment       0x0000000000000023       0x24 c:/altera/16.0/nios2eds/bin/gnu/h-x86_64-mingw32/bin/../lib/gcc/nios2-elf/5.2.0/mno-hw-mul\libgcc.a(fixsfsi.o)
 .comment       0x0000000000000023       0x24 c:/altera/16.0/nios2eds/bin/gnu/h-x86_64-mingw32/bin/../lib/gcc/nios2-elf/5.2.0/mno-hw-mul\libgcc.a(floatsisf.o)
 .comment       0x0000000000000023       0x24 c:/altera/16.0/nios2eds/bin/gnu/h-x86_64-mingw32/bin/../lib/gcc/nios2-elf/5.2.0/mno-hw-mul\libgcc.a(floatunsisf.o)
 .comment       0x0000000000000023       0x24 c:/altera/16.0/nios2eds/bin/gnu/h-x86_64-mingw32/bin/../lib/gcc/nios2-elf/5.2.0/mno-hw-mul\libgcc.a(adddf3.o)
 .comment       0x0000000000000023       0x24 c:/altera/16.0/nios2eds/bin/gnu/h-x86_64-mingw32/bin/../lib/gcc/nios2-elf/5.2.0/mno-hw-mul\libgcc.a(divdf3.o)
 .comment       0x0000000000000023       0x24 c:/altera/16.0/nios2eds/bin/gnu/h-x86_64-mingw32/bin/../lib/gcc/nios2-elf/5.2.0/mno-hw-mul\libgcc.a(ledf2.o)
 .comment       0x0000000000000023       0x24 c:/altera/16.0/nios2eds/bin/gnu/h-x86_64-mingw32/bin/../lib/gcc/nios2-elf/5.2.0/mno-hw-mul\libgcc.a(muldf3.o)
 .comment       0x0000000000000023       0x24 c:/altera/16.0/nios2eds/bin/gnu/h-x86_64-mingw32/bin/../lib/gcc/nios2-elf/5.2.0/mno-hw-mul\libgcc.a(subdf3.o)
 .comment       0x0000000000000023       0x24 c:/altera/16.0/nios2eds/bin/gnu/h-x86_64-mingw32/bin/../lib/gcc/nios2-elf/5.2.0/mno-hw-mul\libgcc.a(extendsfdf2.o)
 .comment       0x0000000000000023       0x24 c:/altera/16.0/nios2eds/bin/gnu/h-x86_64-mingw32/bin/../lib/gcc/nios2-elf/5.2.0/mno-hw-mul\libgcc.a(truncdfsf2.o)
 .comment       0x0000000000000023       0x24 c:/altera/16.0/nios2eds/bin/gnu/h-x86_64-mingw32/bin/../lib/gcc/nios2-elf/5.2.0/mno-hw-mul\libgcc.a(_clzsi2.o)
 .comment       0x0000000000000023       0x24 c:/altera/16.0/nios2eds/bin/gnu/h-x86_64-mingw32/bin/../lib/gcc/nios2-elf/5.2.0/mno-hw-mul\libgcc.a(lib2-mul.o)
 .comment       0x0000000000000023       0x24 c:/altera/16.0/nios2eds/bin/gnu/h-x86_64-mingw32/bin/../lib/gcc/nios2-elf/5.2.0/mno-hw-mul\libgcc.a(_clz.o)
 .comment       0x0000000000000023       0x24 ../neural_bsp//newlib/nios2-elf/lib\libc.a(lib_a-atoi.o)
 .comment       0x0000000000000023       0x24 ../neural_bsp//newlib/nios2-elf/lib\libc.a(lib_a-calloc.o)
 .comment       0x0000000000000023       0x24 ../neural_bsp//newlib/nios2-elf/lib\libc.a(lib_a-callocr.o)
 .comment       0x0000000000000023       0x24 ../neural_bsp//newlib/nios2-elf/lib\libc.a(lib_a-drand48.o)
 .comment       0x0000000000000023       0x24 ../neural_bsp//newlib/nios2-elf/lib\libc.a(lib_a-erand48.o)
 .comment       0x0000000000000023       0x24 ../neural_bsp//newlib/nios2-elf/lib\libc.a(lib_a-getc.o)
 .comment       0x0000000000000023       0x24 ../neural_bsp//newlib/nios2-elf/lib\libc.a(lib_a-impure.o)
 .comment       0x0000000000000023       0x24 ../neural_bsp//newlib/nios2-elf/lib\libc.a(lib_a-malloc.o)
 .comment       0x0000000000000023       0x24 ../neural_bsp//newlib/nios2-elf/lib\libc.a(lib_a-mallocr.o)
 .comment       0x0000000000000023       0x24 ../neural_bsp//newlib/nios2-elf/lib\libc.a(lib_a-memset.o)
 .comment       0x0000000000000023       0x24 ../neural_bsp//newlib/nios2-elf/lib\libc.a(lib_a-printf.o)
 .comment       0x0000000000000023       0x24 ../neural_bsp//newlib/nios2-elf/lib\libc.a(lib_a-putchar.o)
 .comment       0x0000000000000023       0x24 ../neural_bsp//newlib/nios2-elf/lib\libc.a(lib_a-puts.o)
 .comment       0x0000000000000023       0x24 ../neural_bsp//newlib/nios2-elf/lib\libc.a(lib_a-rand48.o)
 .comment       0x0000000000000023       0x24 ../neural_bsp//newlib/nios2-elf/lib\libc.a(lib_a-realloc.o)
 .comment       0x0000000000000023       0x24 ../neural_bsp//newlib/nios2-elf/lib\libc.a(lib_a-reallocr.o)
 .comment       0x0000000000000023       0x24 ../neural_bsp//newlib/nios2-elf/lib\libc.a(lib_a-rget.o)
 .comment       0x0000000000000023       0x24 ../neural_bsp//newlib/nios2-elf/lib\libc.a(lib_a-s_ldexp.o)
 .comment       0x0000000000000023       0x24 ../neural_bsp//newlib/nios2-elf/lib\libc.a(lib_a-s_scalbn.o)
 .comment       0x0000000000000023       0x24 ../neural_bsp//newlib/nios2-elf/lib\libc.a(lib_a-sbrkr.o)
 .comment       0x0000000000000023       0x24 ../neural_bsp//newlib/nios2-elf/lib\libc.a(lib_a-srand48.o)
 .comment       0x0000000000000023       0x24 ../neural_bsp//newlib/nios2-elf/lib\libc.a(lib_a-strlen.o)
 .comment       0x0000000000000023       0x24 ../neural_bsp//newlib/nios2-elf/lib\libc.a(lib_a-strtol.o)
 .comment       0x0000000000000023       0x24 ../neural_bsp//newlib/nios2-elf/lib\libc.a(lib_a-time.o)
 .comment       0x0000000000000023       0x24 ../neural_bsp//newlib/nios2-elf/lib\libc.a(lib_a-vfprintf.o)
 .comment       0x0000000000000023       0x24 ../neural_bsp//newlib/nios2-elf/lib\libc.a(lib_a-wsetup.o)
 .comment       0x0000000000000023       0x24 ../neural_bsp//newlib/nios2-elf/lib\libc.a(lib_a-ctype_.o)
 .comment       0x0000000000000023       0x24 ../neural_bsp//newlib/nios2-elf/lib\libc.a(lib_a-dtoa.o)
 .comment       0x0000000000000023       0x24 ../neural_bsp//newlib/nios2-elf/lib\libc.a(lib_a-errno.o)
 .comment       0x0000000000000023       0x24 ../neural_bsp//newlib/nios2-elf/lib\libc.a(lib_a-fflush.o)
 .comment       0x0000000000000023       0x24 ../neural_bsp//newlib/nios2-elf/lib\libc.a(lib_a-findfp.o)
 .comment       0x0000000000000023       0x24 ../neural_bsp//newlib/nios2-elf/lib\libc.a(lib_a-freer.o)
 .comment       0x0000000000000023       0x24 ../neural_bsp//newlib/nios2-elf/lib\libc.a(lib_a-fvwrite.o)
 .comment       0x0000000000000023       0x24 ../neural_bsp//newlib/nios2-elf/lib\libc.a(lib_a-fwalk.o)
 .comment       0x0000000000000023       0x24 ../neural_bsp//newlib/nios2-elf/lib\libc.a(lib_a-gettimeofdayr.o)
 .comment       0x0000000000000023       0x24 ../neural_bsp//newlib/nios2-elf/lib\libc.a(lib_a-int_errno.o)
 .comment       0x0000000000000023       0x24 ../neural_bsp//newlib/nios2-elf/lib\libc.a(lib_a-locale.o)
 .comment       0x0000000000000023       0x24 ../neural_bsp//newlib/nios2-elf/lib\libc.a(lib_a-makebuf.o)
 .comment       0x0000000000000023       0x24 ../neural_bsp//newlib/nios2-elf/lib\libc.a(lib_a-memchr.o)
 .comment       0x0000000000000023       0x24 ../neural_bsp//newlib/nios2-elf/lib\libc.a(lib_a-memcpy.o)
 .comment       0x0000000000000023       0x24 ../neural_bsp//newlib/nios2-elf/lib\libc.a(lib_a-memmove.o)
 .comment       0x0000000000000023       0x24 ../neural_bsp//newlib/nios2-elf/lib\libc.a(lib_a-mprec.o)
 .comment       0x0000000000000023       0x24 ../neural_bsp//newlib/nios2-elf/lib\libc.a(lib_a-putc.o)
 .comment       0x0000000000000023       0x24 ../neural_bsp//newlib/nios2-elf/lib\libc.a(lib_a-refill.o)
 .comment       0x0000000000000023       0x24 ../neural_bsp//newlib/nios2-elf/lib\libc.a(lib_a-s_copysign.o)
 .comment       0x0000000000000023       0x24 ../neural_bsp//newlib/nios2-elf/lib\libc.a(lib_a-s_finite.o)
 .comment       0x0000000000000023       0x24 ../neural_bsp//newlib/nios2-elf/lib\libc.a(lib_a-s_fpclassify.o)
 .comment       0x0000000000000023       0x24 ../neural_bsp//newlib/nios2-elf/lib\libc.a(lib_a-stdio.o)
 .comment       0x0000000000000023       0x24 ../neural_bsp//newlib/nios2-elf/lib\libc.a(lib_a-strcmp.o)
 .comment       0x0000000000000023       0x24 ../neural_bsp//newlib/nios2-elf/lib\libc.a(lib_a-vfiprintf.o)
 .comment       0x0000000000000023       0x24 ../neural_bsp//newlib/nios2-elf/lib\libc.a(lib_a-wbuf.o)
 .comment       0x0000000000000023       0x24 ../neural_bsp//newlib/nios2-elf/lib\libc.a(lib_a-writer.o)
 .comment       0x0000000000000023       0x24 ../neural_bsp//newlib/nios2-elf/lib\libc.a(closer.o)
 .comment       0x0000000000000023       0x24 ../neural_bsp//newlib/nios2-elf/lib\libc.a(lib_a-fclose.o)
 .comment       0x0000000000000023       0x24 ../neural_bsp//newlib/nios2-elf/lib\libc.a(lib_a-fputwc.o)
 .comment       0x0000000000000023       0x24 ../neural_bsp//newlib/nios2-elf/lib\libc.a(lib_a-fstatr.o)
 .comment       0x0000000000000023       0x24 ../neural_bsp//newlib/nios2-elf/lib\libc.a(lib_a-isattyr.o)
 .comment       0x0000000000000023       0x24 ../neural_bsp//newlib/nios2-elf/lib\libc.a(lib_a-lseekr.o)
 .comment       0x0000000000000023       0x24 ../neural_bsp//newlib/nios2-elf/lib\libc.a(lib_a-readr.o)
 .comment       0x0000000000000023       0x24 ../neural_bsp//newlib/nios2-elf/lib\libc.a(lib_a-wcrtomb.o)
 .comment       0x0000000000000023       0x24 ../neural_bsp//newlib/nios2-elf/lib\libc.a(lib_a-wctomb_r.o)
 .comment       0x0000000000000023       0x24 c:/altera/16.0/nios2eds/bin/gnu/h-x86_64-mingw32/bin/../lib/gcc/nios2-elf/5.2.0/mno-hw-mul\libgcc.a(_udivdi3.o)
 .comment       0x0000000000000023       0x24 c:/altera/16.0/nios2eds/bin/gnu/h-x86_64-mingw32/bin/../lib/gcc/nios2-elf/5.2.0/mno-hw-mul\libgcc.a(_umoddi3.o)
 .comment       0x0000000000000023       0x24 c:/altera/16.0/nios2eds/bin/gnu/h-x86_64-mingw32/bin/../lib/gcc/nios2-elf/5.2.0/mno-hw-mul\libgcc.a(eqdf2.o)
 .comment       0x0000000000000023       0x24 c:/altera/16.0/nios2eds/bin/gnu/h-x86_64-mingw32/bin/../lib/gcc/nios2-elf/5.2.0/mno-hw-mul\libgcc.a(gedf2.o)
 .comment       0x0000000000000023       0x24 c:/altera/16.0/nios2eds/bin/gnu/h-x86_64-mingw32/bin/../lib/gcc/nios2-elf/5.2.0/mno-hw-mul\libgcc.a(fixdfsi.o)
 .comment       0x0000000000000023       0x24 c:/altera/16.0/nios2eds/bin/gnu/h-x86_64-mingw32/bin/../lib/gcc/nios2-elf/5.2.0/mno-hw-mul\libgcc.a(floatsidf.o)
 .comment       0x0000000000000023       0x24 c:/altera/16.0/nios2eds/bin/gnu/h-x86_64-mingw32/bin/../lib/gcc/nios2-elf/5.2.0/mno-hw-mul\libgcc.a(floatunsidf.o)
 .comment       0x0000000000000023       0x24 ../neural_bsp/\libhal_bsp.a(alt_close.o)
 .comment       0x0000000000000023       0x24 ../neural_bsp/\libhal_bsp.a(alt_dev.o)
 .comment       0x0000000000000023       0x24 ../neural_bsp/\libhal_bsp.a(alt_errno.o)
 .comment       0x0000000000000023       0x24 ../neural_bsp/\libhal_bsp.a(alt_fstat.o)
 .comment       0x0000000000000023       0x24 ../neural_bsp/\libhal_bsp.a(alt_gettod.o)
 .comment       0x0000000000000023       0x24 ../neural_bsp/\libhal_bsp.a(alt_isatty.o)
 .comment       0x0000000000000023       0x24 ../neural_bsp/\libhal_bsp.a(alt_load.o)
 .comment       0x0000000000000023       0x24 ../neural_bsp/\libhal_bsp.a(alt_lseek.o)
 .comment       0x0000000000000023       0x24 ../neural_bsp/\libhal_bsp.a(alt_main.o)
 .comment       0x0000000000000023       0x24 ../neural_bsp/\libhal_bsp.a(alt_malloc_lock.o)
 .comment       0x0000000000000023       0x24 ../neural_bsp/\libhal_bsp.a(alt_read.o)
 .comment       0x0000000000000023       0x24 ../neural_bsp/\libhal_bsp.a(alt_release_fd.o)
 .comment       0x0000000000000023       0x24 ../neural_bsp/\libhal_bsp.a(alt_sbrk.o)
 .comment       0x0000000000000023       0x24 ../neural_bsp/\libhal_bsp.a(alt_tick.o)
 .comment       0x0000000000000023       0x24 ../neural_bsp/\libhal_bsp.a(alt_write.o)
 .comment       0x0000000000000023       0x24 ../neural_bsp/\libhal_bsp.a(alt_sys_init.o)
 .comment       0x0000000000000023       0x24 ../neural_bsp/\libhal_bsp.a(altera_avalon_jtag_uart_fd.o)
 .comment       0x0000000000000023       0x24 ../neural_bsp/\libhal_bsp.a(altera_avalon_jtag_uart_init.o)
 .comment       0x0000000000000023       0x24 ../neural_bsp/\libhal_bsp.a(altera_avalon_jtag_uart_ioctl.o)
 .comment       0x0000000000000023       0x24 ../neural_bsp/\libhal_bsp.a(altera_avalon_jtag_uart_read.o)
 .comment       0x0000000000000023       0x24 ../neural_bsp/\libhal_bsp.a(altera_avalon_jtag_uart_write.o)
 .comment       0x0000000000000023       0x24 ../neural_bsp/\libhal_bsp.a(altera_hostfs.o)
 .comment       0x0000000000000023       0x24 ../neural_bsp/\libhal_bsp.a(alt_alarm_start.o)
 .comment       0x0000000000000023       0x24 ../neural_bsp/\libhal_bsp.a(alt_dcache_flush_all.o)
 .comment       0x0000000000000023       0x24 ../neural_bsp/\libhal_bsp.a(alt_dev_llist_insert.o)
 .comment       0x0000000000000023       0x24 ../neural_bsp/\libhal_bsp.a(alt_do_ctors.o)
 .comment       0x0000000000000023       0x24 ../neural_bsp/\libhal_bsp.a(alt_do_dtors.o)
 .comment       0x0000000000000023       0x24 ../neural_bsp/\libhal_bsp.a(alt_fs_reg.o)
 .comment       0x0000000000000023       0x24 ../neural_bsp/\libhal_bsp.a(alt_icache_flush_all.o)
 .comment       0x0000000000000023       0x24 ../neural_bsp/\libhal_bsp.a(alt_iic.o)
 .comment       0x0000000000000023       0x24 ../neural_bsp/\libhal_bsp.a(alt_iic_isr_register.o)
 .comment       0x0000000000000023       0x24 ../neural_bsp/\libhal_bsp.a(alt_io_redirect.o)
 .comment       0x0000000000000023       0x24 ../neural_bsp/\libhal_bsp.a(alt_irq_handler.o)
 .comment       0x0000000000000023       0x24 ../neural_bsp/\libhal_bsp.a(alt_irq_vars.o)
 .comment       0x0000000000000023       0x24 ../neural_bsp/\libhal_bsp.a(alt_open.o)
 .comment       0x0000000000000023       0x24 ../neural_bsp/\libhal_bsp.a(altera_nios2_gen2_irq.o)
 .comment       0x0000000000000023       0x24 ../neural_bsp/\libhal_bsp.a(alt_find_dev.o)
 .comment       0x0000000000000023       0x24 ../neural_bsp/\libhal_bsp.a(alt_find_file.o)
 .comment       0x0000000000000023       0x24 ../neural_bsp/\libhal_bsp.a(alt_get_fd.o)
 .comment       0x0000000000000023       0x24 ../neural_bsp/\libhal_bsp.a(alt_instruction_exception_entry.o)
 .comment       0x0000000000000023       0x24 ../neural_bsp//newlib/nios2-elf/lib\libc.a(lib_a-atexit.o)
 .comment       0x0000000000000023       0x24 ../neural_bsp//newlib/nios2-elf/lib\libc.a(lib_a-exit.o)
 .comment       0x0000000000000023       0x24 ../neural_bsp//newlib/nios2-elf/lib\libc.a(lib_a-memcmp.o)
 .comment       0x0000000000000023       0x24 ../neural_bsp//newlib/nios2-elf/lib\libc.a(lib_a-__atexit.o)
 .comment       0x0000000000000023       0x24 ../neural_bsp//newlib/nios2-elf/lib\libc.a(lib_a-__call_atexit.o)
 .comment       0x0000000000000023       0x24 c:/altera/16.0/nios2eds/bin/gnu/h-x86_64-mingw32/bin/../lib/gcc/nios2-elf/5.2.0/mno-hw-mul\libgcc.a(_muldi3.o)
 .comment       0x0000000000000023       0x24 ../neural_bsp/\libhal_bsp.a(alt_exit.o)

.debug
 *(.debug)

.line
 *(.line)

.debug_srcinfo
 *(.debug_srcinfo)

.debug_sfnames
 *(.debug_sfnames)

.debug_aranges  0x0000000000000000     0x1438
 *(.debug_aranges)
 .debug_aranges
                0x0000000000000000       0x28 ../neural_bsp//obj/HAL/src/crt0.o
 .debug_aranges
                0x0000000000000028       0x20 obj/default/formula.o
 .debug_aranges
                0x0000000000000048       0x20 obj/default/main.o
 .debug_aranges
                0x0000000000000068       0x20 obj/default/types.o
 .debug_aranges
                0x0000000000000088       0x20 c:/altera/16.0/nios2eds/bin/gnu/h-x86_64-mingw32/bin/../lib/gcc/nios2-elf/5.2.0/mno-hw-mul\libgcc.a(_fixunssfsi.o)
 .debug_aranges
                0x00000000000000a8       0x20 c:/altera/16.0/nios2eds/bin/gnu/h-x86_64-mingw32/bin/../lib/gcc/nios2-elf/5.2.0/mno-hw-mul\libgcc.a(lib2-divmod.o)
 .debug_aranges
                0x00000000000000c8       0x20 c:/altera/16.0/nios2eds/bin/gnu/h-x86_64-mingw32/bin/../lib/gcc/nios2-elf/5.2.0/mno-hw-mul\libgcc.a(addsf3.o)
 .debug_aranges
                0x00000000000000e8       0x20 c:/altera/16.0/nios2eds/bin/gnu/h-x86_64-mingw32/bin/../lib/gcc/nios2-elf/5.2.0/mno-hw-mul\libgcc.a(divsf3.o)
 .debug_aranges
                0x0000000000000108       0x20 c:/altera/16.0/nios2eds/bin/gnu/h-x86_64-mingw32/bin/../lib/gcc/nios2-elf/5.2.0/mno-hw-mul\libgcc.a(eqsf2.o)
 .debug_aranges
                0x0000000000000128       0x20 c:/altera/16.0/nios2eds/bin/gnu/h-x86_64-mingw32/bin/../lib/gcc/nios2-elf/5.2.0/mno-hw-mul\libgcc.a(gesf2.o)
 .debug_aranges
                0x0000000000000148       0x20 c:/altera/16.0/nios2eds/bin/gnu/h-x86_64-mingw32/bin/../lib/gcc/nios2-elf/5.2.0/mno-hw-mul\libgcc.a(lesf2.o)
 .debug_aranges
                0x0000000000000168       0x20 c:/altera/16.0/nios2eds/bin/gnu/h-x86_64-mingw32/bin/../lib/gcc/nios2-elf/5.2.0/mno-hw-mul\libgcc.a(mulsf3.o)
 .debug_aranges
                0x0000000000000188       0x20 c:/altera/16.0/nios2eds/bin/gnu/h-x86_64-mingw32/bin/../lib/gcc/nios2-elf/5.2.0/mno-hw-mul\libgcc.a(subsf3.o)
 .debug_aranges
                0x00000000000001a8       0x20 c:/altera/16.0/nios2eds/bin/gnu/h-x86_64-mingw32/bin/../lib/gcc/nios2-elf/5.2.0/mno-hw-mul\libgcc.a(fixsfsi.o)
 .debug_aranges
                0x00000000000001c8       0x20 c:/altera/16.0/nios2eds/bin/gnu/h-x86_64-mingw32/bin/../lib/gcc/nios2-elf/5.2.0/mno-hw-mul\libgcc.a(floatsisf.o)
 .debug_aranges
                0x00000000000001e8       0x20 c:/altera/16.0/nios2eds/bin/gnu/h-x86_64-mingw32/bin/../lib/gcc/nios2-elf/5.2.0/mno-hw-mul\libgcc.a(floatunsisf.o)
 .debug_aranges
                0x0000000000000208       0x20 c:/altera/16.0/nios2eds/bin/gnu/h-x86_64-mingw32/bin/../lib/gcc/nios2-elf/5.2.0/mno-hw-mul\libgcc.a(adddf3.o)
 .debug_aranges
                0x0000000000000228       0x20 c:/altera/16.0/nios2eds/bin/gnu/h-x86_64-mingw32/bin/../lib/gcc/nios2-elf/5.2.0/mno-hw-mul\libgcc.a(divdf3.o)
 .debug_aranges
                0x0000000000000248       0x20 c:/altera/16.0/nios2eds/bin/gnu/h-x86_64-mingw32/bin/../lib/gcc/nios2-elf/5.2.0/mno-hw-mul\libgcc.a(ledf2.o)
 .debug_aranges
                0x0000000000000268       0x20 c:/altera/16.0/nios2eds/bin/gnu/h-x86_64-mingw32/bin/../lib/gcc/nios2-elf/5.2.0/mno-hw-mul\libgcc.a(muldf3.o)
 .debug_aranges
                0x0000000000000288       0x20 c:/altera/16.0/nios2eds/bin/gnu/h-x86_64-mingw32/bin/../lib/gcc/nios2-elf/5.2.0/mno-hw-mul\libgcc.a(subdf3.o)
 .debug_aranges
                0x00000000000002a8       0x20 c:/altera/16.0/nios2eds/bin/gnu/h-x86_64-mingw32/bin/../lib/gcc/nios2-elf/5.2.0/mno-hw-mul\libgcc.a(extendsfdf2.o)
 .debug_aranges
                0x00000000000002c8       0x20 c:/altera/16.0/nios2eds/bin/gnu/h-x86_64-mingw32/bin/../lib/gcc/nios2-elf/5.2.0/mno-hw-mul\libgcc.a(truncdfsf2.o)
 .debug_aranges
                0x00000000000002e8       0x20 c:/altera/16.0/nios2eds/bin/gnu/h-x86_64-mingw32/bin/../lib/gcc/nios2-elf/5.2.0/mno-hw-mul\libgcc.a(_clzsi2.o)
 .debug_aranges
                0x0000000000000308       0x20 c:/altera/16.0/nios2eds/bin/gnu/h-x86_64-mingw32/bin/../lib/gcc/nios2-elf/5.2.0/mno-hw-mul\libgcc.a(lib2-mul.o)
 .debug_aranges
                0x0000000000000328       0x18 c:/altera/16.0/nios2eds/bin/gnu/h-x86_64-mingw32/bin/../lib/gcc/nios2-elf/5.2.0/mno-hw-mul\libgcc.a(_clz.o)
 .debug_aranges
                0x0000000000000340       0x28 ../neural_bsp//newlib/nios2-elf/lib\libc.a(lib_a-atoi.o)
 .debug_aranges
                0x0000000000000368       0x20 ../neural_bsp//newlib/nios2-elf/lib\libc.a(lib_a-calloc.o)
 .debug_aranges
                0x0000000000000388       0x20 ../neural_bsp//newlib/nios2-elf/lib\libc.a(lib_a-callocr.o)
 .debug_aranges
                0x00000000000003a8       0x28 ../neural_bsp//newlib/nios2-elf/lib\libc.a(lib_a-drand48.o)
 .debug_aranges
                0x00000000000003d0       0x28 ../neural_bsp//newlib/nios2-elf/lib\libc.a(lib_a-erand48.o)
 .debug_aranges
                0x00000000000003f8       0x28 ../neural_bsp//newlib/nios2-elf/lib\libc.a(lib_a-getc.o)
 .debug_aranges
                0x0000000000000420       0x18 ../neural_bsp//newlib/nios2-elf/lib\libc.a(lib_a-impure.o)
 .debug_aranges
                0x0000000000000438       0x28 ../neural_bsp//newlib/nios2-elf/lib\libc.a(lib_a-malloc.o)
 .debug_aranges
                0x0000000000000460       0x28 ../neural_bsp//newlib/nios2-elf/lib\libc.a(lib_a-mallocr.o)
 .debug_aranges
                0x0000000000000488       0x20 ../neural_bsp//newlib/nios2-elf/lib\libc.a(lib_a-memset.o)
 .debug_aranges
                0x00000000000004a8       0x28 ../neural_bsp//newlib/nios2-elf/lib\libc.a(lib_a-printf.o)
 .debug_aranges
                0x00000000000004d0       0x28 ../neural_bsp//newlib/nios2-elf/lib\libc.a(lib_a-putchar.o)
 .debug_aranges
                0x00000000000004f8       0x28 ../neural_bsp//newlib/nios2-elf/lib\libc.a(lib_a-puts.o)
 .debug_aranges
                0x0000000000000520       0x20 ../neural_bsp//newlib/nios2-elf/lib\libc.a(lib_a-rand48.o)
 .debug_aranges
                0x0000000000000540       0x20 ../neural_bsp//newlib/nios2-elf/lib\libc.a(lib_a-realloc.o)
 .debug_aranges
                0x0000000000000560       0x20 ../neural_bsp//newlib/nios2-elf/lib\libc.a(lib_a-reallocr.o)
 .debug_aranges
                0x0000000000000580       0x28 ../neural_bsp//newlib/nios2-elf/lib\libc.a(lib_a-rget.o)
 .debug_aranges
                0x00000000000005a8       0x20 ../neural_bsp//newlib/nios2-elf/lib\libc.a(lib_a-s_ldexp.o)
 .debug_aranges
                0x00000000000005c8       0x20 ../neural_bsp//newlib/nios2-elf/lib\libc.a(lib_a-s_scalbn.o)
 .debug_aranges
                0x00000000000005e8       0x20 ../neural_bsp//newlib/nios2-elf/lib\libc.a(lib_a-sbrkr.o)
 .debug_aranges
                0x0000000000000608       0x28 ../neural_bsp//newlib/nios2-elf/lib\libc.a(lib_a-srand48.o)
 .debug_aranges
                0x0000000000000630       0x20 ../neural_bsp//newlib/nios2-elf/lib\libc.a(lib_a-strlen.o)
 .debug_aranges
                0x0000000000000650       0x28 ../neural_bsp//newlib/nios2-elf/lib\libc.a(lib_a-strtol.o)
 .debug_aranges
                0x0000000000000678       0x20 ../neural_bsp//newlib/nios2-elf/lib\libc.a(lib_a-time.o)
 .debug_aranges
                0x0000000000000698       0x40 ../neural_bsp//newlib/nios2-elf/lib\libc.a(lib_a-vfprintf.o)
 .debug_aranges
                0x00000000000006d8       0x20 ../neural_bsp//newlib/nios2-elf/lib\libc.a(lib_a-wsetup.o)
 .debug_aranges
                0x00000000000006f8       0x18 ../neural_bsp//newlib/nios2-elf/lib\libc.a(lib_a-ctype_.o)
 .debug_aranges
                0x0000000000000710       0x28 ../neural_bsp//newlib/nios2-elf/lib\libc.a(lib_a-dtoa.o)
 .debug_aranges
                0x0000000000000738       0x20 ../neural_bsp//newlib/nios2-elf/lib\libc.a(lib_a-errno.o)
 .debug_aranges
                0x0000000000000758       0x30 ../neural_bsp//newlib/nios2-elf/lib\libc.a(lib_a-fflush.o)
 .debug_aranges
                0x0000000000000788       0x88 ../neural_bsp//newlib/nios2-elf/lib\libc.a(lib_a-findfp.o)
 .debug_aranges
                0x0000000000000810       0x28 ../neural_bsp//newlib/nios2-elf/lib\libc.a(lib_a-freer.o)
 .debug_aranges
                0x0000000000000838       0x20 ../neural_bsp//newlib/nios2-elf/lib\libc.a(lib_a-fvwrite.o)
 .debug_aranges
                0x0000000000000858       0x28 ../neural_bsp//newlib/nios2-elf/lib\libc.a(lib_a-fwalk.o)
 .debug_aranges
                0x0000000000000880       0x20 ../neural_bsp//newlib/nios2-elf/lib\libc.a(lib_a-gettimeofdayr.o)
 .debug_aranges
                0x00000000000008a0       0x18 ../neural_bsp//newlib/nios2-elf/lib\libc.a(lib_a-int_errno.o)
 .debug_aranges
                0x00000000000008b8       0x58 ../neural_bsp//newlib/nios2-elf/lib\libc.a(lib_a-locale.o)
 .debug_aranges
                0x0000000000000910       0x20 ../neural_bsp//newlib/nios2-elf/lib\libc.a(lib_a-makebuf.o)
 .debug_aranges
                0x0000000000000930       0x20 ../neural_bsp//newlib/nios2-elf/lib\libc.a(lib_a-memchr.o)
 .debug_aranges
                0x0000000000000950       0x20 ../neural_bsp//newlib/nios2-elf/lib\libc.a(lib_a-memcpy.o)
 .debug_aranges
                0x0000000000000970       0x20 ../neural_bsp//newlib/nios2-elf/lib\libc.a(lib_a-memmove.o)
 .debug_aranges
                0x0000000000000990       0xb0 ../neural_bsp//newlib/nios2-elf/lib\libc.a(lib_a-mprec.o)
 .debug_aranges
                0x0000000000000a40       0x28 ../neural_bsp//newlib/nios2-elf/lib\libc.a(lib_a-putc.o)
 .debug_aranges
                0x0000000000000a68       0x28 ../neural_bsp//newlib/nios2-elf/lib\libc.a(lib_a-refill.o)
 .debug_aranges
                0x0000000000000a90       0x20 ../neural_bsp//newlib/nios2-elf/lib\libc.a(lib_a-s_copysign.o)
 .debug_aranges
                0x0000000000000ab0       0x20 ../neural_bsp//newlib/nios2-elf/lib\libc.a(lib_a-s_finite.o)
 .debug_aranges
                0x0000000000000ad0       0x20 ../neural_bsp//newlib/nios2-elf/lib\libc.a(lib_a-s_fpclassify.o)
 .debug_aranges
                0x0000000000000af0       0x40 ../neural_bsp//newlib/nios2-elf/lib\libc.a(lib_a-stdio.o)
 .debug_aranges
                0x0000000000000b30       0x20 ../neural_bsp//newlib/nios2-elf/lib\libc.a(lib_a-strcmp.o)
 .debug_aranges
                0x0000000000000b50       0x38 ../neural_bsp//newlib/nios2-elf/lib\libc.a(lib_a-vfiprintf.o)
 .debug_aranges
                0x0000000000000b88       0x28 ../neural_bsp//newlib/nios2-elf/lib\libc.a(lib_a-wbuf.o)
 .debug_aranges
                0x0000000000000bb0       0x20 ../neural_bsp//newlib/nios2-elf/lib\libc.a(lib_a-writer.o)
 .debug_aranges
                0x0000000000000bd0       0x20 ../neural_bsp//newlib/nios2-elf/lib\libc.a(closer.o)
 .debug_aranges
                0x0000000000000bf0       0x28 ../neural_bsp//newlib/nios2-elf/lib\libc.a(lib_a-fclose.o)
 .debug_aranges
                0x0000000000000c18       0x30 ../neural_bsp//newlib/nios2-elf/lib\libc.a(lib_a-fputwc.o)
 .debug_aranges
                0x0000000000000c48       0x20 ../neural_bsp//newlib/nios2-elf/lib\libc.a(lib_a-fstatr.o)
 .debug_aranges
                0x0000000000000c68       0x20 ../neural_bsp//newlib/nios2-elf/lib\libc.a(lib_a-isattyr.o)
 .debug_aranges
                0x0000000000000c88       0x20 ../neural_bsp//newlib/nios2-elf/lib\libc.a(lib_a-lseekr.o)
 .debug_aranges
                0x0000000000000ca8       0x20 ../neural_bsp//newlib/nios2-elf/lib\libc.a(lib_a-readr.o)
 .debug_aranges
                0x0000000000000cc8       0x28 ../neural_bsp//newlib/nios2-elf/lib\libc.a(lib_a-wcrtomb.o)
 .debug_aranges
                0x0000000000000cf0       0x28 ../neural_bsp//newlib/nios2-elf/lib\libc.a(lib_a-wctomb_r.o)
 .debug_aranges
                0x0000000000000d18       0x20 c:/altera/16.0/nios2eds/bin/gnu/h-x86_64-mingw32/bin/../lib/gcc/nios2-elf/5.2.0/mno-hw-mul\libgcc.a(_udivdi3.o)
 .debug_aranges
                0x0000000000000d38       0x20 c:/altera/16.0/nios2eds/bin/gnu/h-x86_64-mingw32/bin/../lib/gcc/nios2-elf/5.2.0/mno-hw-mul\libgcc.a(_umoddi3.o)
 .debug_aranges
                0x0000000000000d58       0x20 c:/altera/16.0/nios2eds/bin/gnu/h-x86_64-mingw32/bin/../lib/gcc/nios2-elf/5.2.0/mno-hw-mul\libgcc.a(eqdf2.o)
 .debug_aranges
                0x0000000000000d78       0x20 c:/altera/16.0/nios2eds/bin/gnu/h-x86_64-mingw32/bin/../lib/gcc/nios2-elf/5.2.0/mno-hw-mul\libgcc.a(gedf2.o)
 .debug_aranges
                0x0000000000000d98       0x20 c:/altera/16.0/nios2eds/bin/gnu/h-x86_64-mingw32/bin/../lib/gcc/nios2-elf/5.2.0/mno-hw-mul\libgcc.a(fixdfsi.o)
 .debug_aranges
                0x0000000000000db8       0x20 c:/altera/16.0/nios2eds/bin/gnu/h-x86_64-mingw32/bin/../lib/gcc/nios2-elf/5.2.0/mno-hw-mul\libgcc.a(floatsidf.o)
 .debug_aranges
                0x0000000000000dd8       0x20 c:/altera/16.0/nios2eds/bin/gnu/h-x86_64-mingw32/bin/../lib/gcc/nios2-elf/5.2.0/mno-hw-mul\libgcc.a(floatunsidf.o)
 .debug_aranges
                0x0000000000000df8       0x20 ../neural_bsp/\libhal_bsp.a(alt_close.o)
 .debug_aranges
                0x0000000000000e18       0x20 ../neural_bsp/\libhal_bsp.a(alt_dev.o)
 .debug_aranges
                0x0000000000000e38       0x18 ../neural_bsp/\libhal_bsp.a(alt_errno.o)
 .debug_aranges
                0x0000000000000e50       0x20 ../neural_bsp/\libhal_bsp.a(alt_fstat.o)
 .debug_aranges
                0x0000000000000e70       0x20 ../neural_bsp/\libhal_bsp.a(alt_gettod.o)
 .debug_aranges
                0x0000000000000e90       0x20 ../neural_bsp/\libhal_bsp.a(alt_isatty.o)
 .debug_aranges
                0x0000000000000eb0       0x20 ../neural_bsp/\libhal_bsp.a(alt_load.o)
 .debug_aranges
                0x0000000000000ed0       0x20 ../neural_bsp/\libhal_bsp.a(alt_lseek.o)
 .debug_aranges
                0x0000000000000ef0       0x20 ../neural_bsp/\libhal_bsp.a(alt_main.o)
 .debug_aranges
                0x0000000000000f10       0x20 ../neural_bsp/\libhal_bsp.a(alt_malloc_lock.o)
 .debug_aranges
                0x0000000000000f30       0x20 ../neural_bsp/\libhal_bsp.a(alt_read.o)
 .debug_aranges
                0x0000000000000f50       0x20 ../neural_bsp/\libhal_bsp.a(alt_release_fd.o)
 .debug_aranges
                0x0000000000000f70       0x20 ../neural_bsp/\libhal_bsp.a(alt_sbrk.o)
 .debug_aranges
                0x0000000000000f90       0x20 ../neural_bsp/\libhal_bsp.a(alt_tick.o)
 .debug_aranges
                0x0000000000000fb0       0x20 ../neural_bsp/\libhal_bsp.a(alt_write.o)
 .debug_aranges
                0x0000000000000fd0       0x20 ../neural_bsp/\libhal_bsp.a(alt_sys_init.o)
 .debug_aranges
                0x0000000000000ff0       0x20 ../neural_bsp/\libhal_bsp.a(altera_avalon_jtag_uart_fd.o)
 .debug_aranges
                0x0000000000001010       0x20 ../neural_bsp/\libhal_bsp.a(altera_avalon_jtag_uart_init.o)
 .debug_aranges
                0x0000000000001030       0x20 ../neural_bsp/\libhal_bsp.a(altera_avalon_jtag_uart_ioctl.o)
 .debug_aranges
                0x0000000000001050       0x20 ../neural_bsp/\libhal_bsp.a(altera_avalon_jtag_uart_read.o)
 .debug_aranges
                0x0000000000001070       0x20 ../neural_bsp/\libhal_bsp.a(altera_avalon_jtag_uart_write.o)
 .debug_aranges
                0x0000000000001090       0x20 ../neural_bsp/\libhal_bsp.a(altera_hostfs.o)
 .debug_aranges
                0x00000000000010b0       0x20 ../neural_bsp/\libhal_bsp.a(alt_alarm_start.o)
 .debug_aranges
                0x00000000000010d0       0x20 ../neural_bsp/\libhal_bsp.a(alt_dcache_flush_all.o)
 .debug_aranges
                0x00000000000010f0       0x20 ../neural_bsp/\libhal_bsp.a(alt_dev_llist_insert.o)
 .debug_aranges
                0x0000000000001110       0x20 ../neural_bsp/\libhal_bsp.a(alt_do_ctors.o)
 .debug_aranges
                0x0000000000001130       0x20 ../neural_bsp/\libhal_bsp.a(alt_do_dtors.o)
 .debug_aranges
                0x0000000000001150       0x20 ../neural_bsp/\libhal_bsp.a(alt_fs_reg.o)
 .debug_aranges
                0x0000000000001170       0x20 ../neural_bsp/\libhal_bsp.a(alt_icache_flush_all.o)
 .debug_aranges
                0x0000000000001190       0x20 ../neural_bsp/\libhal_bsp.a(alt_iic.o)
 .debug_aranges
                0x00000000000011b0       0x20 ../neural_bsp/\libhal_bsp.a(alt_iic_isr_register.o)
 .debug_aranges
                0x00000000000011d0       0x20 ../neural_bsp/\libhal_bsp.a(alt_io_redirect.o)
 .debug_aranges
                0x00000000000011f0       0x30 ../neural_bsp/\libhal_bsp.a(alt_irq_entry.o)
 .debug_aranges
                0x0000000000001220       0x20 ../neural_bsp/\libhal_bsp.a(alt_irq_handler.o)
 .debug_aranges
                0x0000000000001240       0x18 ../neural_bsp/\libhal_bsp.a(alt_irq_vars.o)
 .debug_aranges
                0x0000000000001258       0x20 ../neural_bsp/\libhal_bsp.a(alt_open.o)
 .debug_aranges
                0x0000000000001278       0x20 ../neural_bsp/\libhal_bsp.a(altera_nios2_gen2_irq.o)
 .debug_aranges
                0x0000000000001298       0x38 ../neural_bsp/\libhal_bsp.a(alt_exception_entry.o)
 .debug_aranges
                0x00000000000012d0       0x20 ../neural_bsp/\libhal_bsp.a(alt_find_dev.o)
 .debug_aranges
                0x00000000000012f0       0x20 ../neural_bsp/\libhal_bsp.a(alt_find_file.o)
 .debug_aranges
                0x0000000000001310       0x20 ../neural_bsp/\libhal_bsp.a(alt_get_fd.o)
 .debug_aranges
                0x0000000000001330       0x28 ../neural_bsp/\libhal_bsp.a(alt_instruction_exception_entry.o)
 .debug_aranges
                0x0000000000001358       0x20 ../neural_bsp//newlib/nios2-elf/lib\libc.a(lib_a-atexit.o)
 .debug_aranges
                0x0000000000001378       0x20 ../neural_bsp//newlib/nios2-elf/lib\libc.a(lib_a-exit.o)
 .debug_aranges
                0x0000000000001398       0x20 ../neural_bsp//newlib/nios2-elf/lib\libc.a(lib_a-memcmp.o)
 .debug_aranges
                0x00000000000013b8       0x20 ../neural_bsp//newlib/nios2-elf/lib\libc.a(lib_a-__atexit.o)
 .debug_aranges
                0x00000000000013d8       0x20 ../neural_bsp//newlib/nios2-elf/lib\libc.a(lib_a-__call_atexit.o)
 .debug_aranges
                0x00000000000013f8       0x20 c:/altera/16.0/nios2eds/bin/gnu/h-x86_64-mingw32/bin/../lib/gcc/nios2-elf/5.2.0/mno-hw-mul\libgcc.a(_muldi3.o)
 .debug_aranges
                0x0000000000001418       0x20 ../neural_bsp/\libhal_bsp.a(alt_exit.o)

.debug_pubnames
 *(.debug_pubnames)

.debug_info     0x0000000000000000    0x2e787
 *(.debug_info .gnu.linkonce.wi.*)
 .debug_info    0x0000000000000000       0x5f ../neural_bsp//obj/HAL/src/crt0.o
 .debug_info    0x000000000000005f      0x241 obj/default/formula.o
 .debug_info    0x00000000000002a0      0xc1c obj/default/main.o
 .debug_info    0x0000000000000ebc      0x765 obj/default/types.o
 .debug_info    0x0000000000001621       0xc7 c:/altera/16.0/nios2eds/bin/gnu/h-x86_64-mingw32/bin/../lib/gcc/nios2-elf/5.2.0/mno-hw-mul\libgcc.a(_fixunssfsi.o)
 .debug_info    0x00000000000016e8      0x2c3 c:/altera/16.0/nios2eds/bin/gnu/h-x86_64-mingw32/bin/../lib/gcc/nios2-elf/5.2.0/mno-hw-mul\libgcc.a(lib2-divmod.o)
 .debug_info    0x00000000000019ab      0x2b7 c:/altera/16.0/nios2eds/bin/gnu/h-x86_64-mingw32/bin/../lib/gcc/nios2-elf/5.2.0/mno-hw-mul\libgcc.a(addsf3.o)
 .debug_info    0x0000000000001c62      0x2b7 c:/altera/16.0/nios2eds/bin/gnu/h-x86_64-mingw32/bin/../lib/gcc/nios2-elf/5.2.0/mno-hw-mul\libgcc.a(divsf3.o)
 .debug_info    0x0000000000001f19      0x1b3 c:/altera/16.0/nios2eds/bin/gnu/h-x86_64-mingw32/bin/../lib/gcc/nios2-elf/5.2.0/mno-hw-mul\libgcc.a(eqsf2.o)
 .debug_info    0x00000000000020cc      0x1d3 c:/altera/16.0/nios2eds/bin/gnu/h-x86_64-mingw32/bin/../lib/gcc/nios2-elf/5.2.0/mno-hw-mul\libgcc.a(gesf2.o)
 .debug_info    0x000000000000229f      0x1d5 c:/altera/16.0/nios2eds/bin/gnu/h-x86_64-mingw32/bin/../lib/gcc/nios2-elf/5.2.0/mno-hw-mul\libgcc.a(lesf2.o)
 .debug_info    0x0000000000002474      0x31d c:/altera/16.0/nios2eds/bin/gnu/h-x86_64-mingw32/bin/../lib/gcc/nios2-elf/5.2.0/mno-hw-mul\libgcc.a(mulsf3.o)
 .debug_info    0x0000000000002791      0x2b7 c:/altera/16.0/nios2eds/bin/gnu/h-x86_64-mingw32/bin/../lib/gcc/nios2-elf/5.2.0/mno-hw-mul\libgcc.a(subsf3.o)
 .debug_info    0x0000000000002a48      0x18b c:/altera/16.0/nios2eds/bin/gnu/h-x86_64-mingw32/bin/../lib/gcc/nios2-elf/5.2.0/mno-hw-mul\libgcc.a(fixsfsi.o)
 .debug_info    0x0000000000002bd3      0x1c7 c:/altera/16.0/nios2eds/bin/gnu/h-x86_64-mingw32/bin/../lib/gcc/nios2-elf/5.2.0/mno-hw-mul\libgcc.a(floatsisf.o)
 .debug_info    0x0000000000002d9a      0x1bb c:/altera/16.0/nios2eds/bin/gnu/h-x86_64-mingw32/bin/../lib/gcc/nios2-elf/5.2.0/mno-hw-mul\libgcc.a(floatunsisf.o)
 .debug_info    0x0000000000002f55      0x4a2 c:/altera/16.0/nios2eds/bin/gnu/h-x86_64-mingw32/bin/../lib/gcc/nios2-elf/5.2.0/mno-hw-mul\libgcc.a(adddf3.o)
 .debug_info    0x00000000000033f7      0x5bf c:/altera/16.0/nios2eds/bin/gnu/h-x86_64-mingw32/bin/../lib/gcc/nios2-elf/5.2.0/mno-hw-mul\libgcc.a(divdf3.o)
 .debug_info    0x00000000000039b6      0x204 c:/altera/16.0/nios2eds/bin/gnu/h-x86_64-mingw32/bin/../lib/gcc/nios2-elf/5.2.0/mno-hw-mul\libgcc.a(ledf2.o)
 .debug_info    0x0000000000003bba      0x5f1 c:/altera/16.0/nios2eds/bin/gnu/h-x86_64-mingw32/bin/../lib/gcc/nios2-elf/5.2.0/mno-hw-mul\libgcc.a(muldf3.o)
 .debug_info    0x00000000000041ab      0x4a2 c:/altera/16.0/nios2eds/bin/gnu/h-x86_64-mingw32/bin/../lib/gcc/nios2-elf/5.2.0/mno-hw-mul\libgcc.a(subdf3.o)
 .debug_info    0x000000000000464d      0x248 c:/altera/16.0/nios2eds/bin/gnu/h-x86_64-mingw32/bin/../lib/gcc/nios2-elf/5.2.0/mno-hw-mul\libgcc.a(extendsfdf2.o)
 .debug_info    0x0000000000004895      0x248 c:/altera/16.0/nios2eds/bin/gnu/h-x86_64-mingw32/bin/../lib/gcc/nios2-elf/5.2.0/mno-hw-mul\libgcc.a(truncdfsf2.o)
 .debug_info    0x0000000000004add      0x124 c:/altera/16.0/nios2eds/bin/gnu/h-x86_64-mingw32/bin/../lib/gcc/nios2-elf/5.2.0/mno-hw-mul\libgcc.a(_clzsi2.o)
 .debug_info    0x0000000000004c01       0xb4 c:/altera/16.0/nios2eds/bin/gnu/h-x86_64-mingw32/bin/../lib/gcc/nios2-elf/5.2.0/mno-hw-mul\libgcc.a(lib2-mul.o)
 .debug_info    0x0000000000004cb5       0xb2 c:/altera/16.0/nios2eds/bin/gnu/h-x86_64-mingw32/bin/../lib/gcc/nios2-elf/5.2.0/mno-hw-mul\libgcc.a(_clz.o)
 .debug_info    0x0000000000004d67      0x8c6 ../neural_bsp//newlib/nios2-elf/lib\libc.a(lib_a-atoi.o)
 .debug_info    0x000000000000562d      0x8bb ../neural_bsp//newlib/nios2-elf/lib\libc.a(lib_a-calloc.o)
 .debug_info    0x0000000000005ee8      0x983 ../neural_bsp//newlib/nios2-elf/lib\libc.a(lib_a-callocr.o)
 .debug_info    0x000000000000686b      0x8c5 ../neural_bsp//newlib/nios2-elf/lib\libc.a(lib_a-drand48.o)
 .debug_info    0x0000000000007130      0x8ec ../neural_bsp//newlib/nios2-elf/lib\libc.a(lib_a-erand48.o)
 .debug_info    0x0000000000007a1c      0x942 ../neural_bsp//newlib/nios2-elf/lib\libc.a(lib_a-getc.o)
 .debug_info    0x000000000000835e      0x89d ../neural_bsp//newlib/nios2-elf/lib\libc.a(lib_a-impure.o)
 .debug_info    0x0000000000008bfb      0x8d3 ../neural_bsp//newlib/nios2-elf/lib\libc.a(lib_a-malloc.o)
 .debug_info    0x00000000000094ce      0xbcb ../neural_bsp//newlib/nios2-elf/lib\libc.a(lib_a-mallocr.o)
 .debug_info    0x000000000000a099      0x114 ../neural_bsp//newlib/nios2-elf/lib\libc.a(lib_a-memset.o)
 .debug_info    0x000000000000a1ad      0x942 ../neural_bsp//newlib/nios2-elf/lib\libc.a(lib_a-printf.o)
 .debug_info    0x000000000000aaef      0x8e5 ../neural_bsp//newlib/nios2-elf/lib\libc.a(lib_a-putchar.o)
 .debug_info    0x000000000000b3d4      0x9c1 ../neural_bsp//newlib/nios2-elf/lib\libc.a(lib_a-puts.o)
 .debug_info    0x000000000000bd95      0x8dc ../neural_bsp//newlib/nios2-elf/lib\libc.a(lib_a-rand48.o)
 .debug_info    0x000000000000c671      0x8bc ../neural_bsp//newlib/nios2-elf/lib\libc.a(lib_a-realloc.o)
 .debug_info    0x000000000000cf2d      0xb38 ../neural_bsp//newlib/nios2-elf/lib\libc.a(lib_a-reallocr.o)
 .debug_info    0x000000000000da65      0x900 ../neural_bsp//newlib/nios2-elf/lib\libc.a(lib_a-rget.o)
 .debug_info    0x000000000000e365       0xbd ../neural_bsp//newlib/nios2-elf/lib\libc.a(lib_a-s_ldexp.o)
 .debug_info    0x000000000000e422      0x201 ../neural_bsp//newlib/nios2-elf/lib\libc.a(lib_a-s_scalbn.o)
 .debug_info    0x000000000000e623      0x8db ../neural_bsp//newlib/nios2-elf/lib\libc.a(lib_a-sbrkr.o)
 .debug_info    0x000000000000eefe      0x8de ../neural_bsp//newlib/nios2-elf/lib\libc.a(lib_a-srand48.o)
 .debug_info    0x000000000000f7dc       0xdd ../neural_bsp//newlib/nios2-elf/lib\libc.a(lib_a-strlen.o)
 .debug_info    0x000000000000f8b9      0x98d ../neural_bsp//newlib/nios2-elf/lib\libc.a(lib_a-strtol.o)
 .debug_info    0x0000000000010246      0x8f2 ../neural_bsp//newlib/nios2-elf/lib\libc.a(lib_a-time.o)
 .debug_info    0x0000000000010b38      0xfab ../neural_bsp//newlib/nios2-elf/lib\libc.a(lib_a-vfprintf.o)
 .debug_info    0x0000000000011ae3      0x8d9 ../neural_bsp//newlib/nios2-elf/lib\libc.a(lib_a-wsetup.o)
 .debug_info    0x00000000000123bc       0x92 ../neural_bsp//newlib/nios2-elf/lib\libc.a(lib_a-ctype_.o)
 .debug_info    0x000000000001244e      0xcca ../neural_bsp//newlib/nios2-elf/lib\libc.a(lib_a-dtoa.o)
 .debug_info    0x0000000000013118      0x897 ../neural_bsp//newlib/nios2-elf/lib\libc.a(lib_a-errno.o)
 .debug_info    0x00000000000139af      0x9c0 ../neural_bsp//newlib/nios2-elf/lib\libc.a(lib_a-fflush.o)
 .debug_info    0x000000000001436f      0xbae ../neural_bsp//newlib/nios2-elf/lib\libc.a(lib_a-findfp.o)
 .debug_info    0x0000000000014f1d      0xb01 ../neural_bsp//newlib/nios2-elf/lib\libc.a(lib_a-freer.o)
 .debug_info    0x0000000000015a1e      0x9da ../neural_bsp//newlib/nios2-elf/lib\libc.a(lib_a-fvwrite.o)
 .debug_info    0x00000000000163f8      0x978 ../neural_bsp//newlib/nios2-elf/lib\libc.a(lib_a-fwalk.o)
 .debug_info    0x0000000000016d70      0x90f ../neural_bsp//newlib/nios2-elf/lib\libc.a(lib_a-gettimeofdayr.o)
 .debug_info    0x000000000001767f       0x86 ../neural_bsp//newlib/nios2-elf/lib\libc.a(lib_a-int_errno.o)
 .debug_info    0x0000000000017705      0xb5c ../neural_bsp//newlib/nios2-elf/lib\libc.a(lib_a-locale.o)
 .debug_info    0x0000000000018261      0xa51 ../neural_bsp//newlib/nios2-elf/lib\libc.a(lib_a-makebuf.o)
 .debug_info    0x0000000000018cb2      0x126 ../neural_bsp//newlib/nios2-elf/lib\libc.a(lib_a-memchr.o)
 .debug_info    0x0000000000018dd8      0x139 ../neural_bsp//newlib/nios2-elf/lib\libc.a(lib_a-memcpy.o)
 .debug_info    0x0000000000018f11      0x12f ../neural_bsp//newlib/nios2-elf/lib\libc.a(lib_a-memmove.o)
 .debug_info    0x0000000000019040     0x12f1 ../neural_bsp//newlib/nios2-elf/lib\libc.a(lib_a-mprec.o)
 .debug_info    0x000000000001a331      0x95a ../neural_bsp//newlib/nios2-elf/lib\libc.a(lib_a-putc.o)
 .debug_info    0x000000000001ac8b      0x91c ../neural_bsp//newlib/nios2-elf/lib\libc.a(lib_a-refill.o)
 .debug_info    0x000000000001b5a7      0x181 ../neural_bsp//newlib/nios2-elf/lib\libc.a(lib_a-s_copysign.o)
 .debug_info    0x000000000001b728      0x13b ../neural_bsp//newlib/nios2-elf/lib\libc.a(lib_a-s_finite.o)
 .debug_info    0x000000000001b863      0x13e ../neural_bsp//newlib/nios2-elf/lib\libc.a(lib_a-s_fpclassify.o)
 .debug_info    0x000000000001b9a1      0xa64 ../neural_bsp//newlib/nios2-elf/lib\libc.a(lib_a-stdio.o)
 .debug_info    0x000000000001c405       0xdc ../neural_bsp//newlib/nios2-elf/lib\libc.a(lib_a-strcmp.o)
 .debug_info    0x000000000001c4e1      0xdc6 ../neural_bsp//newlib/nios2-elf/lib\libc.a(lib_a-vfiprintf.o)
 .debug_info    0x000000000001d2a7      0x921 ../neural_bsp//newlib/nios2-elf/lib\libc.a(lib_a-wbuf.o)
 .debug_info    0x000000000001dbc8      0x8f7 ../neural_bsp//newlib/nios2-elf/lib\libc.a(lib_a-writer.o)
 .debug_info    0x000000000001e4bf      0x8be ../neural_bsp//newlib/nios2-elf/lib\libc.a(closer.o)
 .debug_info    0x000000000001ed7d      0x90c ../neural_bsp//newlib/nios2-elf/lib\libc.a(lib_a-fclose.o)
 .debug_info    0x000000000001f689      0x9b5 ../neural_bsp//newlib/nios2-elf/lib\libc.a(lib_a-fputwc.o)
 .debug_info    0x000000000002003e      0xa34 ../neural_bsp//newlib/nios2-elf/lib\libc.a(lib_a-fstatr.o)
 .debug_info    0x0000000000020a72      0x8be ../neural_bsp//newlib/nios2-elf/lib\libc.a(lib_a-isattyr.o)
 .debug_info    0x0000000000021330      0x8da ../neural_bsp//newlib/nios2-elf/lib\libc.a(lib_a-lseekr.o)
 .debug_info    0x0000000000021c0a      0x8f0 ../neural_bsp//newlib/nios2-elf/lib\libc.a(lib_a-readr.o)
 .debug_info    0x00000000000224fa      0x9c6 ../neural_bsp//newlib/nios2-elf/lib\libc.a(lib_a-wcrtomb.o)
 .debug_info    0x0000000000022ec0      0x98a ../neural_bsp//newlib/nios2-elf/lib\libc.a(lib_a-wctomb_r.o)
 .debug_info    0x000000000002384a      0x70f c:/altera/16.0/nios2eds/bin/gnu/h-x86_64-mingw32/bin/../lib/gcc/nios2-elf/5.2.0/mno-hw-mul\libgcc.a(_udivdi3.o)
 .debug_info    0x0000000000023f59      0x76a c:/altera/16.0/nios2eds/bin/gnu/h-x86_64-mingw32/bin/../lib/gcc/nios2-elf/5.2.0/mno-hw-mul\libgcc.a(_umoddi3.o)
 .debug_info    0x00000000000246c3      0x1e2 c:/altera/16.0/nios2eds/bin/gnu/h-x86_64-mingw32/bin/../lib/gcc/nios2-elf/5.2.0/mno-hw-mul\libgcc.a(eqdf2.o)
 .debug_info    0x00000000000248a5      0x202 c:/altera/16.0/nios2eds/bin/gnu/h-x86_64-mingw32/bin/../lib/gcc/nios2-elf/5.2.0/mno-hw-mul\libgcc.a(gedf2.o)
 .debug_info    0x0000000000024aa7      0x1ae c:/altera/16.0/nios2eds/bin/gnu/h-x86_64-mingw32/bin/../lib/gcc/nios2-elf/5.2.0/mno-hw-mul\libgcc.a(fixdfsi.o)
 .debug_info    0x0000000000024c55      0x1bc c:/altera/16.0/nios2eds/bin/gnu/h-x86_64-mingw32/bin/../lib/gcc/nios2-elf/5.2.0/mno-hw-mul\libgcc.a(floatsidf.o)
 .debug_info    0x0000000000024e11      0x1b0 c:/altera/16.0/nios2eds/bin/gnu/h-x86_64-mingw32/bin/../lib/gcc/nios2-elf/5.2.0/mno-hw-mul\libgcc.a(floatunsidf.o)
 .debug_info    0x0000000000024fc1      0x321 ../neural_bsp/\libhal_bsp.a(alt_close.o)
 .debug_info    0x00000000000252e2      0x49c ../neural_bsp/\libhal_bsp.a(alt_dev.o)
 .debug_info    0x000000000002577e       0xa6 ../neural_bsp/\libhal_bsp.a(alt_errno.o)
 .debug_info    0x0000000000025824      0x488 ../neural_bsp/\libhal_bsp.a(alt_fstat.o)
 .debug_info    0x0000000000025cac      0x1d9 ../neural_bsp/\libhal_bsp.a(alt_gettod.o)
 .debug_info    0x0000000000025e85      0x48b ../neural_bsp/\libhal_bsp.a(alt_isatty.o)
 .debug_info    0x0000000000026310      0x145 ../neural_bsp/\libhal_bsp.a(alt_load.o)
 .debug_info    0x0000000000026455      0x352 ../neural_bsp/\libhal_bsp.a(alt_lseek.o)
 .debug_info    0x00000000000267a7      0x131 ../neural_bsp/\libhal_bsp.a(alt_main.o)
 .debug_info    0x00000000000268d8      0x8b6 ../neural_bsp/\libhal_bsp.a(alt_malloc_lock.o)
 .debug_info    0x000000000002718e      0x4b0 ../neural_bsp/\libhal_bsp.a(alt_read.o)
 .debug_info    0x000000000002763e      0x2b0 ../neural_bsp/\libhal_bsp.a(alt_release_fd.o)
 .debug_info    0x00000000000278ee      0x1ac ../neural_bsp/\libhal_bsp.a(alt_sbrk.o)
 .debug_info    0x0000000000027a9a      0x299 ../neural_bsp/\libhal_bsp.a(alt_tick.o)
 .debug_info    0x0000000000027d33      0x4b7 ../neural_bsp/\libhal_bsp.a(alt_write.o)
 .debug_info    0x00000000000281ea      0x4f8 ../neural_bsp/\libhal_bsp.a(alt_sys_init.o)
 .debug_info    0x00000000000286e2      0x52e ../neural_bsp/\libhal_bsp.a(altera_avalon_jtag_uart_fd.o)
 .debug_info    0x0000000000028c10      0x3a0 ../neural_bsp/\libhal_bsp.a(altera_avalon_jtag_uart_init.o)
 .debug_info    0x0000000000028fb0      0x280 ../neural_bsp/\libhal_bsp.a(altera_avalon_jtag_uart_ioctl.o)
 .debug_info    0x0000000000029230      0x345 ../neural_bsp/\libhal_bsp.a(altera_avalon_jtag_uart_read.o)
 .debug_info    0x0000000000029575      0x340 ../neural_bsp/\libhal_bsp.a(altera_avalon_jtag_uart_write.o)
 .debug_info    0x00000000000298b5      0x9c4 ../neural_bsp/\libhal_bsp.a(altera_hostfs.o)
 .debug_info    0x000000000002a279      0x2cc ../neural_bsp/\libhal_bsp.a(alt_alarm_start.o)
 .debug_info    0x000000000002a545       0x92 ../neural_bsp/\libhal_bsp.a(alt_dcache_flush_all.o)
 .debug_info    0x000000000002a5d7      0x1a9 ../neural_bsp/\libhal_bsp.a(alt_dev_llist_insert.o)
 .debug_info    0x000000000002a780       0x83 ../neural_bsp/\libhal_bsp.a(alt_do_ctors.o)
 .debug_info    0x000000000002a803       0x83 ../neural_bsp/\libhal_bsp.a(alt_do_dtors.o)
 .debug_info    0x000000000002a886      0x302 ../neural_bsp/\libhal_bsp.a(alt_fs_reg.o)
 .debug_info    0x000000000002ab88       0x92 ../neural_bsp/\libhal_bsp.a(alt_icache_flush_all.o)
 .debug_info    0x000000000002ac1a      0x350 ../neural_bsp/\libhal_bsp.a(alt_iic.o)
 .debug_info    0x000000000002af6a      0x1ef ../neural_bsp/\libhal_bsp.a(alt_iic_isr_register.o)
 .debug_info    0x000000000002b159      0x4a5 ../neural_bsp/\libhal_bsp.a(alt_io_redirect.o)
 .debug_info    0x000000000002b5fe       0x68 ../neural_bsp/\libhal_bsp.a(alt_irq_entry.o)
 .debug_info    0x000000000002b666      0x187 ../neural_bsp/\libhal_bsp.a(alt_irq_handler.o)
 .debug_info    0x000000000002b7ed       0x88 ../neural_bsp/\libhal_bsp.a(alt_irq_vars.o)
 .debug_info    0x000000000002b875      0x3bb ../neural_bsp/\libhal_bsp.a(alt_open.o)
 .debug_info    0x000000000002bc30       0x92 ../neural_bsp/\libhal_bsp.a(altera_nios2_gen2_irq.o)
 .debug_info    0x000000000002bcc2       0x6e ../neural_bsp/\libhal_bsp.a(alt_exception_entry.o)
 .debug_info    0x000000000002bd30      0x2e9 ../neural_bsp/\libhal_bsp.a(alt_find_dev.o)
 .debug_info    0x000000000002c019      0x2e6 ../neural_bsp/\libhal_bsp.a(alt_find_file.o)
 .debug_info    0x000000000002c2ff      0x310 ../neural_bsp/\libhal_bsp.a(alt_get_fd.o)
 .debug_info    0x000000000002c60f      0x1e7 ../neural_bsp/\libhal_bsp.a(alt_instruction_exception_entry.o)
 .debug_info    0x000000000002c7f6       0xca ../neural_bsp//newlib/nios2-elf/lib\libc.a(lib_a-atexit.o)
 .debug_info    0x000000000002c8c0      0x8a0 ../neural_bsp//newlib/nios2-elf/lib\libc.a(lib_a-exit.o)
 .debug_info    0x000000000002d160      0x10f ../neural_bsp//newlib/nios2-elf/lib\libc.a(lib_a-memcmp.o)
 .debug_info    0x000000000002d26f      0x90d ../neural_bsp//newlib/nios2-elf/lib\libc.a(lib_a-__atexit.o)
 .debug_info    0x000000000002db7c      0x936 ../neural_bsp//newlib/nios2-elf/lib\libc.a(lib_a-__call_atexit.o)
 .debug_info    0x000000000002e4b2      0x1e9 c:/altera/16.0/nios2eds/bin/gnu/h-x86_64-mingw32/bin/../lib/gcc/nios2-elf/5.2.0/mno-hw-mul\libgcc.a(_muldi3.o)
 .debug_info    0x000000000002e69b       0xec ../neural_bsp/\libhal_bsp.a(alt_exit.o)

.debug_abbrev   0x0000000000000000     0xb91d
 *(.debug_abbrev)
 .debug_abbrev  0x0000000000000000       0x12 ../neural_bsp//obj/HAL/src/crt0.o
 .debug_abbrev  0x0000000000000012       0xff obj/default/formula.o
 .debug_abbrev  0x0000000000000111      0x1fb obj/default/main.o
 .debug_abbrev  0x000000000000030c      0x116 obj/default/types.o
 .debug_abbrev  0x0000000000000422       0x60 c:/altera/16.0/nios2eds/bin/gnu/h-x86_64-mingw32/bin/../lib/gcc/nios2-elf/5.2.0/mno-hw-mul\libgcc.a(_fixunssfsi.o)
 .debug_abbrev  0x0000000000000482      0x10e c:/altera/16.0/nios2eds/bin/gnu/h-x86_64-mingw32/bin/../lib/gcc/nios2-elf/5.2.0/mno-hw-mul\libgcc.a(lib2-divmod.o)
 .debug_abbrev  0x0000000000000590      0x13c c:/altera/16.0/nios2eds/bin/gnu/h-x86_64-mingw32/bin/../lib/gcc/nios2-elf/5.2.0/mno-hw-mul\libgcc.a(addsf3.o)
 .debug_abbrev  0x00000000000006cc      0x120 c:/altera/16.0/nios2eds/bin/gnu/h-x86_64-mingw32/bin/../lib/gcc/nios2-elf/5.2.0/mno-hw-mul\libgcc.a(divsf3.o)
 .debug_abbrev  0x00000000000007ec      0x119 c:/altera/16.0/nios2eds/bin/gnu/h-x86_64-mingw32/bin/../lib/gcc/nios2-elf/5.2.0/mno-hw-mul\libgcc.a(eqsf2.o)
 .debug_abbrev  0x0000000000000905      0x128 c:/altera/16.0/nios2eds/bin/gnu/h-x86_64-mingw32/bin/../lib/gcc/nios2-elf/5.2.0/mno-hw-mul\libgcc.a(gesf2.o)
 .debug_abbrev  0x0000000000000a2d      0x128 c:/altera/16.0/nios2eds/bin/gnu/h-x86_64-mingw32/bin/../lib/gcc/nios2-elf/5.2.0/mno-hw-mul\libgcc.a(lesf2.o)
 .debug_abbrev  0x0000000000000b55      0x12d c:/altera/16.0/nios2eds/bin/gnu/h-x86_64-mingw32/bin/../lib/gcc/nios2-elf/5.2.0/mno-hw-mul\libgcc.a(mulsf3.o)
 .debug_abbrev  0x0000000000000c82      0x13a c:/altera/16.0/nios2eds/bin/gnu/h-x86_64-mingw32/bin/../lib/gcc/nios2-elf/5.2.0/mno-hw-mul\libgcc.a(subsf3.o)
 .debug_abbrev  0x0000000000000dbc      0x135 c:/altera/16.0/nios2eds/bin/gnu/h-x86_64-mingw32/bin/../lib/gcc/nios2-elf/5.2.0/mno-hw-mul\libgcc.a(fixsfsi.o)
 .debug_abbrev  0x0000000000000ef1      0x147 c:/altera/16.0/nios2eds/bin/gnu/h-x86_64-mingw32/bin/../lib/gcc/nios2-elf/5.2.0/mno-hw-mul\libgcc.a(floatsisf.o)
 .debug_abbrev  0x0000000000001038      0x147 c:/altera/16.0/nios2eds/bin/gnu/h-x86_64-mingw32/bin/../lib/gcc/nios2-elf/5.2.0/mno-hw-mul\libgcc.a(floatunsisf.o)
 .debug_abbrev  0x000000000000117f      0x13a c:/altera/16.0/nios2eds/bin/gnu/h-x86_64-mingw32/bin/../lib/gcc/nios2-elf/5.2.0/mno-hw-mul\libgcc.a(adddf3.o)
 .debug_abbrev  0x00000000000012b9      0x12d c:/altera/16.0/nios2eds/bin/gnu/h-x86_64-mingw32/bin/../lib/gcc/nios2-elf/5.2.0/mno-hw-mul\libgcc.a(divdf3.o)
 .debug_abbrev  0x00000000000013e6      0x137 c:/altera/16.0/nios2eds/bin/gnu/h-x86_64-mingw32/bin/../lib/gcc/nios2-elf/5.2.0/mno-hw-mul\libgcc.a(ledf2.o)
 .debug_abbrev  0x000000000000151d      0x13f c:/altera/16.0/nios2eds/bin/gnu/h-x86_64-mingw32/bin/../lib/gcc/nios2-elf/5.2.0/mno-hw-mul\libgcc.a(muldf3.o)
 .debug_abbrev  0x000000000000165c      0x133 c:/altera/16.0/nios2eds/bin/gnu/h-x86_64-mingw32/bin/../lib/gcc/nios2-elf/5.2.0/mno-hw-mul\libgcc.a(subdf3.o)
 .debug_abbrev  0x000000000000178f      0x124 c:/altera/16.0/nios2eds/bin/gnu/h-x86_64-mingw32/bin/../lib/gcc/nios2-elf/5.2.0/mno-hw-mul\libgcc.a(extendsfdf2.o)
 .debug_abbrev  0x00000000000018b3      0x11b c:/altera/16.0/nios2eds/bin/gnu/h-x86_64-mingw32/bin/../lib/gcc/nios2-elf/5.2.0/mno-hw-mul\libgcc.a(truncdfsf2.o)
 .debug_abbrev  0x00000000000019ce       0xbe c:/altera/16.0/nios2eds/bin/gnu/h-x86_64-mingw32/bin/../lib/gcc/nios2-elf/5.2.0/mno-hw-mul\libgcc.a(_clzsi2.o)
 .debug_abbrev  0x0000000000001a8c       0x6f c:/altera/16.0/nios2eds/bin/gnu/h-x86_64-mingw32/bin/../lib/gcc/nios2-elf/5.2.0/mno-hw-mul\libgcc.a(lib2-mul.o)
 .debug_abbrev  0x0000000000001afb       0x5d c:/altera/16.0/nios2eds/bin/gnu/h-x86_64-mingw32/bin/../lib/gcc/nios2-elf/5.2.0/mno-hw-mul\libgcc.a(_clz.o)
 .debug_abbrev  0x0000000000001b58      0x1b6 ../neural_bsp//newlib/nios2-elf/lib\libc.a(lib_a-atoi.o)
 .debug_abbrev  0x0000000000001d0e      0x1bc ../neural_bsp//newlib/nios2-elf/lib\libc.a(lib_a-calloc.o)
 .debug_abbrev  0x0000000000001eca      0x1d2 ../neural_bsp//newlib/nios2-elf/lib\libc.a(lib_a-callocr.o)
 .debug_abbrev  0x000000000000209c      0x1c7 ../neural_bsp//newlib/nios2-elf/lib\libc.a(lib_a-drand48.o)
 .debug_abbrev  0x0000000000002263      0x1bc ../neural_bsp//newlib/nios2-elf/lib\libc.a(lib_a-erand48.o)
 .debug_abbrev  0x000000000000241f      0x1e1 ../neural_bsp//newlib/nios2-elf/lib\libc.a(lib_a-getc.o)
 .debug_abbrev  0x0000000000002600      0x18d ../neural_bsp//newlib/nios2-elf/lib\libc.a(lib_a-impure.o)
 .debug_abbrev  0x000000000000278d      0x1c7 ../neural_bsp//newlib/nios2-elf/lib\libc.a(lib_a-malloc.o)
 .debug_abbrev  0x0000000000002954      0x1fb ../neural_bsp//newlib/nios2-elf/lib\libc.a(lib_a-mallocr.o)
 .debug_abbrev  0x0000000000002b4f       0x8e ../neural_bsp//newlib/nios2-elf/lib\libc.a(lib_a-memset.o)
 .debug_abbrev  0x0000000000002bdd      0x1ed ../neural_bsp//newlib/nios2-elf/lib\libc.a(lib_a-printf.o)
 .debug_abbrev  0x0000000000002dca      0x1d8 ../neural_bsp//newlib/nios2-elf/lib\libc.a(lib_a-putchar.o)
 .debug_abbrev  0x0000000000002fa2      0x1f5 ../neural_bsp//newlib/nios2-elf/lib\libc.a(lib_a-puts.o)
 .debug_abbrev  0x0000000000003197      0x1bf ../neural_bsp//newlib/nios2-elf/lib\libc.a(lib_a-rand48.o)
 .debug_abbrev  0x0000000000003356      0x1bc ../neural_bsp//newlib/nios2-elf/lib\libc.a(lib_a-realloc.o)
 .debug_abbrev  0x0000000000003512      0x1fe ../neural_bsp//newlib/nios2-elf/lib\libc.a(lib_a-reallocr.o)
 .debug_abbrev  0x0000000000003710      0x1e1 ../neural_bsp//newlib/nios2-elf/lib\libc.a(lib_a-rget.o)
 .debug_abbrev  0x00000000000038f1       0x60 ../neural_bsp//newlib/nios2-elf/lib\libc.a(lib_a-s_ldexp.o)
 .debug_abbrev  0x0000000000003951       0xdc ../neural_bsp//newlib/nios2-elf/lib\libc.a(lib_a-s_scalbn.o)
 .debug_abbrev  0x0000000000003a2d      0x1de ../neural_bsp//newlib/nios2-elf/lib\libc.a(lib_a-sbrkr.o)
 .debug_abbrev  0x0000000000003c0b      0x1d4 ../neural_bsp//newlib/nios2-elf/lib\libc.a(lib_a-srand48.o)
 .debug_abbrev  0x0000000000003ddf       0x7f ../neural_bsp//newlib/nios2-elf/lib\libc.a(lib_a-strlen.o)
 .debug_abbrev  0x0000000000003e5e      0x1f2 ../neural_bsp//newlib/nios2-elf/lib\libc.a(lib_a-strtol.o)
 .debug_abbrev  0x0000000000004050      0x1bc ../neural_bsp//newlib/nios2-elf/lib\libc.a(lib_a-time.o)
 .debug_abbrev  0x000000000000420c      0x29b ../neural_bsp//newlib/nios2-elf/lib\libc.a(lib_a-vfprintf.o)
 .debug_abbrev  0x00000000000044a7      0x1c5 ../neural_bsp//newlib/nios2-elf/lib\libc.a(lib_a-wsetup.o)
 .debug_abbrev  0x000000000000466c       0x5b ../neural_bsp//newlib/nios2-elf/lib\libc.a(lib_a-ctype_.o)
 .debug_abbrev  0x00000000000046c7      0x22f ../neural_bsp//newlib/nios2-elf/lib\libc.a(lib_a-dtoa.o)
 .debug_abbrev  0x00000000000048f6      0x19c ../neural_bsp//newlib/nios2-elf/lib\libc.a(lib_a-errno.o)
 .debug_abbrev  0x0000000000004a92      0x21d ../neural_bsp//newlib/nios2-elf/lib\libc.a(lib_a-fflush.o)
 .debug_abbrev  0x0000000000004caf      0x2ba ../neural_bsp//newlib/nios2-elf/lib\libc.a(lib_a-findfp.o)
 .debug_abbrev  0x0000000000004f69      0x1fd ../neural_bsp//newlib/nios2-elf/lib\libc.a(lib_a-freer.o)
 .debug_abbrev  0x0000000000005166      0x1d5 ../neural_bsp//newlib/nios2-elf/lib\libc.a(lib_a-fvwrite.o)
 .debug_abbrev  0x000000000000533b      0x1ba ../neural_bsp//newlib/nios2-elf/lib\libc.a(lib_a-fwalk.o)
 .debug_abbrev  0x00000000000054f5      0x1cb ../neural_bsp//newlib/nios2-elf/lib\libc.a(lib_a-gettimeofdayr.o)
 .debug_abbrev  0x00000000000056c0       0x35 ../neural_bsp//newlib/nios2-elf/lib\libc.a(lib_a-int_errno.o)
 .debug_abbrev  0x00000000000056f5      0x255 ../neural_bsp//newlib/nios2-elf/lib\libc.a(lib_a-locale.o)
 .debug_abbrev  0x000000000000594a      0x1b8 ../neural_bsp//newlib/nios2-elf/lib\libc.a(lib_a-makebuf.o)
 .debug_abbrev  0x0000000000005b02       0xa9 ../neural_bsp//newlib/nios2-elf/lib\libc.a(lib_a-memchr.o)
 .debug_abbrev  0x0000000000005bab       0xa1 ../neural_bsp//newlib/nios2-elf/lib\libc.a(lib_a-memcpy.o)
 .debug_abbrev  0x0000000000005c4c       0x9a ../neural_bsp//newlib/nios2-elf/lib\libc.a(lib_a-memmove.o)
 .debug_abbrev  0x0000000000005ce6      0x2a9 ../neural_bsp//newlib/nios2-elf/lib\libc.a(lib_a-mprec.o)
 .debug_abbrev  0x0000000000005f8f      0x1e1 ../neural_bsp//newlib/nios2-elf/lib\libc.a(lib_a-putc.o)
 .debug_abbrev  0x0000000000006170      0x1ea ../neural_bsp//newlib/nios2-elf/lib\libc.a(lib_a-refill.o)
 .debug_abbrev  0x000000000000635a       0xd3 ../neural_bsp//newlib/nios2-elf/lib\libc.a(lib_a-s_copysign.o)
 .debug_abbrev  0x000000000000642d       0xc8 ../neural_bsp//newlib/nios2-elf/lib\libc.a(lib_a-s_finite.o)
 .debug_abbrev  0x00000000000064f5       0xc8 ../neural_bsp//newlib/nios2-elf/lib\libc.a(lib_a-s_fpclassify.o)
 .debug_abbrev  0x00000000000065bd      0x1f0 ../neural_bsp//newlib/nios2-elf/lib\libc.a(lib_a-stdio.o)
 .debug_abbrev  0x00000000000067ad       0x72 ../neural_bsp//newlib/nios2-elf/lib\libc.a(lib_a-strcmp.o)
 .debug_abbrev  0x000000000000681f      0x26e ../neural_bsp//newlib/nios2-elf/lib\libc.a(lib_a-vfiprintf.o)
 .debug_abbrev  0x0000000000006a8d      0x1f0 ../neural_bsp//newlib/nios2-elf/lib\libc.a(lib_a-wbuf.o)
 .debug_abbrev  0x0000000000006c7d      0x1c1 ../neural_bsp//newlib/nios2-elf/lib\libc.a(lib_a-writer.o)
 .debug_abbrev  0x0000000000006e3e      0x1bc ../neural_bsp//newlib/nios2-elf/lib\libc.a(closer.o)
 .debug_abbrev  0x0000000000006ffa      0x1ff ../neural_bsp//newlib/nios2-elf/lib\libc.a(lib_a-fclose.o)
 .debug_abbrev  0x00000000000071f9      0x1d4 ../neural_bsp//newlib/nios2-elf/lib\libc.a(lib_a-fputwc.o)
 .debug_abbrev  0x00000000000073cd      0x1cb ../neural_bsp//newlib/nios2-elf/lib\libc.a(lib_a-fstatr.o)
 .debug_abbrev  0x0000000000007598      0x1bc ../neural_bsp//newlib/nios2-elf/lib\libc.a(lib_a-isattyr.o)
 .debug_abbrev  0x0000000000007754      0x1cb ../neural_bsp//newlib/nios2-elf/lib\libc.a(lib_a-lseekr.o)
 .debug_abbrev  0x000000000000791f      0x1bc ../neural_bsp//newlib/nios2-elf/lib\libc.a(lib_a-readr.o)
 .debug_abbrev  0x0000000000007adb      0x1e3 ../neural_bsp//newlib/nios2-elf/lib\libc.a(lib_a-wcrtomb.o)
 .debug_abbrev  0x0000000000007cbe      0x1e7 ../neural_bsp//newlib/nios2-elf/lib\libc.a(lib_a-wctomb_r.o)
 .debug_abbrev  0x0000000000007ea5      0x170 c:/altera/16.0/nios2eds/bin/gnu/h-x86_64-mingw32/bin/../lib/gcc/nios2-elf/5.2.0/mno-hw-mul\libgcc.a(_udivdi3.o)
 .debug_abbrev  0x0000000000008015      0x19c c:/altera/16.0/nios2eds/bin/gnu/h-x86_64-mingw32/bin/../lib/gcc/nios2-elf/5.2.0/mno-hw-mul\libgcc.a(_umoddi3.o)
 .debug_abbrev  0x00000000000081b1      0x128 c:/altera/16.0/nios2eds/bin/gnu/h-x86_64-mingw32/bin/../lib/gcc/nios2-elf/5.2.0/mno-hw-mul\libgcc.a(eqdf2.o)
 .debug_abbrev  0x00000000000082d9      0x137 c:/altera/16.0/nios2eds/bin/gnu/h-x86_64-mingw32/bin/../lib/gcc/nios2-elf/5.2.0/mno-hw-mul\libgcc.a(gedf2.o)
 .debug_abbrev  0x0000000000008410      0x135 c:/altera/16.0/nios2eds/bin/gnu/h-x86_64-mingw32/bin/../lib/gcc/nios2-elf/5.2.0/mno-hw-mul\libgcc.a(fixdfsi.o)
 .debug_abbrev  0x0000000000008545      0x124 c:/altera/16.0/nios2eds/bin/gnu/h-x86_64-mingw32/bin/../lib/gcc/nios2-elf/5.2.0/mno-hw-mul\libgcc.a(floatsidf.o)
 .debug_abbrev  0x0000000000008669      0x124 c:/altera/16.0/nios2eds/bin/gnu/h-x86_64-mingw32/bin/../lib/gcc/nios2-elf/5.2.0/mno-hw-mul\libgcc.a(floatunsidf.o)
 .debug_abbrev  0x000000000000878d      0x11f ../neural_bsp/\libhal_bsp.a(alt_close.o)
 .debug_abbrev  0x00000000000088ac       0xd9 ../neural_bsp/\libhal_bsp.a(alt_dev.o)
 .debug_abbrev  0x0000000000008985       0x5a ../neural_bsp/\libhal_bsp.a(alt_errno.o)
 .debug_abbrev  0x00000000000089df      0x11f ../neural_bsp/\libhal_bsp.a(alt_fstat.o)
 .debug_abbrev  0x0000000000008afe       0xf5 ../neural_bsp/\libhal_bsp.a(alt_gettod.o)
 .debug_abbrev  0x0000000000008bf3      0x11f ../neural_bsp/\libhal_bsp.a(alt_isatty.o)
 .debug_abbrev  0x0000000000008d12       0x9f ../neural_bsp/\libhal_bsp.a(alt_load.o)
 .debug_abbrev  0x0000000000008db1      0x11f ../neural_bsp/\libhal_bsp.a(alt_lseek.o)
 .debug_abbrev  0x0000000000008ed0       0xba ../neural_bsp/\libhal_bsp.a(alt_main.o)
 .debug_abbrev  0x0000000000008f8a      0x1b4 ../neural_bsp/\libhal_bsp.a(alt_malloc_lock.o)
 .debug_abbrev  0x000000000000913e      0x12e ../neural_bsp/\libhal_bsp.a(alt_read.o)
 .debug_abbrev  0x000000000000926c       0xde ../neural_bsp/\libhal_bsp.a(alt_release_fd.o)
 .debug_abbrev  0x000000000000934a      0x112 ../neural_bsp/\libhal_bsp.a(alt_sbrk.o)
 .debug_abbrev  0x000000000000945c      0x15a ../neural_bsp/\libhal_bsp.a(alt_tick.o)
 .debug_abbrev  0x00000000000095b6      0x133 ../neural_bsp/\libhal_bsp.a(alt_write.o)
 .debug_abbrev  0x00000000000096e9      0x187 ../neural_bsp/\libhal_bsp.a(alt_sys_init.o)
 .debug_abbrev  0x0000000000009870      0x127 ../neural_bsp/\libhal_bsp.a(altera_avalon_jtag_uart_fd.o)
 .debug_abbrev  0x0000000000009997      0x19e ../neural_bsp/\libhal_bsp.a(altera_avalon_jtag_uart_init.o)
 .debug_abbrev  0x0000000000009b35      0x111 ../neural_bsp/\libhal_bsp.a(altera_avalon_jtag_uart_ioctl.o)
 .debug_abbrev  0x0000000000009c46      0x1aa ../neural_bsp/\libhal_bsp.a(altera_avalon_jtag_uart_read.o)
 .debug_abbrev  0x0000000000009df0      0x1a8 ../neural_bsp/\libhal_bsp.a(altera_avalon_jtag_uart_write.o)
 .debug_abbrev  0x0000000000009f98      0x1c7 ../neural_bsp/\libhal_bsp.a(altera_hostfs.o)
 .debug_abbrev  0x000000000000a15f      0x162 ../neural_bsp/\libhal_bsp.a(alt_alarm_start.o)
 .debug_abbrev  0x000000000000a2c1       0x42 ../neural_bsp/\libhal_bsp.a(alt_dcache_flush_all.o)
 .debug_abbrev  0x000000000000a303      0x114 ../neural_bsp/\libhal_bsp.a(alt_dev_llist_insert.o)
 .debug_abbrev  0x000000000000a417       0x79 ../neural_bsp/\libhal_bsp.a(alt_do_ctors.o)
 .debug_abbrev  0x000000000000a490       0x79 ../neural_bsp/\libhal_bsp.a(alt_do_dtors.o)
 .debug_abbrev  0x000000000000a509      0x108 ../neural_bsp/\libhal_bsp.a(alt_fs_reg.o)
 .debug_abbrev  0x000000000000a611       0x42 ../neural_bsp/\libhal_bsp.a(alt_icache_flush_all.o)
 .debug_abbrev  0x000000000000a653      0x163 ../neural_bsp/\libhal_bsp.a(alt_iic.o)
 .debug_abbrev  0x000000000000a7b6      0x169 ../neural_bsp/\libhal_bsp.a(alt_iic_isr_register.o)
 .debug_abbrev  0x000000000000a91f      0x114 ../neural_bsp/\libhal_bsp.a(alt_io_redirect.o)
 .debug_abbrev  0x000000000000aa33       0x12 ../neural_bsp/\libhal_bsp.a(alt_irq_entry.o)
 .debug_abbrev  0x000000000000aa45      0x122 ../neural_bsp/\libhal_bsp.a(alt_irq_handler.o)
 .debug_abbrev  0x000000000000ab67       0x40 ../neural_bsp/\libhal_bsp.a(alt_irq_vars.o)
 .debug_abbrev  0x000000000000aba7      0x148 ../neural_bsp/\libhal_bsp.a(alt_open.o)
 .debug_abbrev  0x000000000000acef       0x42 ../neural_bsp/\libhal_bsp.a(altera_nios2_gen2_irq.o)
 .debug_abbrev  0x000000000000ad31       0x12 ../neural_bsp/\libhal_bsp.a(alt_exception_entry.o)
 .debug_abbrev  0x000000000000ad43       0xf0 ../neural_bsp/\libhal_bsp.a(alt_find_dev.o)
 .debug_abbrev  0x000000000000ae33       0xf0 ../neural_bsp/\libhal_bsp.a(alt_find_file.o)
 .debug_abbrev  0x000000000000af23      0x10d ../neural_bsp/\libhal_bsp.a(alt_get_fd.o)
 .debug_abbrev  0x000000000000b030       0xdc ../neural_bsp/\libhal_bsp.a(alt_instruction_exception_entry.o)
 .debug_abbrev  0x000000000000b10c       0x7b ../neural_bsp//newlib/nios2-elf/lib\libc.a(lib_a-atexit.o)
 .debug_abbrev  0x000000000000b187      0x1ae ../neural_bsp//newlib/nios2-elf/lib\libc.a(lib_a-exit.o)
 .debug_abbrev  0x000000000000b335       0x7d ../neural_bsp//newlib/nios2-elf/lib\libc.a(lib_a-memcmp.o)
 .debug_abbrev  0x000000000000b3b2      0x1f4 ../neural_bsp//newlib/nios2-elf/lib\libc.a(lib_a-__atexit.o)
 .debug_abbrev  0x000000000000b5a6      0x1ee ../neural_bsp//newlib/nios2-elf/lib\libc.a(lib_a-__call_atexit.o)
 .debug_abbrev  0x000000000000b794       0xe0 c:/altera/16.0/nios2eds/bin/gnu/h-x86_64-mingw32/bin/../lib/gcc/nios2-elf/5.2.0/mno-hw-mul\libgcc.a(_muldi3.o)
 .debug_abbrev  0x000000000000b874       0xa9 ../neural_bsp/\libhal_bsp.a(alt_exit.o)

.debug_line     0x0000000000000000     0xd617
 *(.debug_line)
 .debug_line    0x0000000000000000       0x66 ../neural_bsp//obj/HAL/src/crt0.o
 .debug_line    0x0000000000000066       0xe9 obj/default/formula.o
 .debug_line    0x000000000000014f      0x24d obj/default/main.o
 .debug_line    0x000000000000039c      0x323 obj/default/types.o
 .debug_line    0x00000000000006bf       0x6e c:/altera/16.0/nios2eds/bin/gnu/h-x86_64-mingw32/bin/../lib/gcc/nios2-elf/5.2.0/mno-hw-mul\libgcc.a(_fixunssfsi.o)
 .debug_line    0x000000000000072d      0x105 c:/altera/16.0/nios2eds/bin/gnu/h-x86_64-mingw32/bin/../lib/gcc/nios2-elf/5.2.0/mno-hw-mul\libgcc.a(lib2-divmod.o)
 .debug_line    0x0000000000000832      0x28a c:/altera/16.0/nios2eds/bin/gnu/h-x86_64-mingw32/bin/../lib/gcc/nios2-elf/5.2.0/mno-hw-mul\libgcc.a(addsf3.o)
 .debug_line    0x0000000000000abc      0x16c c:/altera/16.0/nios2eds/bin/gnu/h-x86_64-mingw32/bin/../lib/gcc/nios2-elf/5.2.0/mno-hw-mul\libgcc.a(divsf3.o)
 .debug_line    0x0000000000000c28       0xa8 c:/altera/16.0/nios2eds/bin/gnu/h-x86_64-mingw32/bin/../lib/gcc/nios2-elf/5.2.0/mno-hw-mul\libgcc.a(eqsf2.o)
 .debug_line    0x0000000000000cd0       0xbf c:/altera/16.0/nios2eds/bin/gnu/h-x86_64-mingw32/bin/../lib/gcc/nios2-elf/5.2.0/mno-hw-mul\libgcc.a(gesf2.o)
 .debug_line    0x0000000000000d8f       0xcf c:/altera/16.0/nios2eds/bin/gnu/h-x86_64-mingw32/bin/../lib/gcc/nios2-elf/5.2.0/mno-hw-mul\libgcc.a(lesf2.o)
 .debug_line    0x0000000000000e5e      0x15c c:/altera/16.0/nios2eds/bin/gnu/h-x86_64-mingw32/bin/../lib/gcc/nios2-elf/5.2.0/mno-hw-mul\libgcc.a(mulsf3.o)
 .debug_line    0x0000000000000fba      0x298 c:/altera/16.0/nios2eds/bin/gnu/h-x86_64-mingw32/bin/../lib/gcc/nios2-elf/5.2.0/mno-hw-mul\libgcc.a(subsf3.o)
 .debug_line    0x0000000000001252       0x9a c:/altera/16.0/nios2eds/bin/gnu/h-x86_64-mingw32/bin/../lib/gcc/nios2-elf/5.2.0/mno-hw-mul\libgcc.a(fixsfsi.o)
 .debug_line    0x00000000000012ec       0xb3 c:/altera/16.0/nios2eds/bin/gnu/h-x86_64-mingw32/bin/../lib/gcc/nios2-elf/5.2.0/mno-hw-mul\libgcc.a(floatsisf.o)
 .debug_line    0x000000000000139f       0xa9 c:/altera/16.0/nios2eds/bin/gnu/h-x86_64-mingw32/bin/../lib/gcc/nios2-elf/5.2.0/mno-hw-mul\libgcc.a(floatunsisf.o)
 .debug_line    0x0000000000001448      0x37e c:/altera/16.0/nios2eds/bin/gnu/h-x86_64-mingw32/bin/../lib/gcc/nios2-elf/5.2.0/mno-hw-mul\libgcc.a(adddf3.o)
 .debug_line    0x00000000000017c6      0x2b0 c:/altera/16.0/nios2eds/bin/gnu/h-x86_64-mingw32/bin/../lib/gcc/nios2-elf/5.2.0/mno-hw-mul\libgcc.a(divdf3.o)
 .debug_line    0x0000000000001a76       0xe6 c:/altera/16.0/nios2eds/bin/gnu/h-x86_64-mingw32/bin/../lib/gcc/nios2-elf/5.2.0/mno-hw-mul\libgcc.a(ledf2.o)
 .debug_line    0x0000000000001b5c      0x1ea c:/altera/16.0/nios2eds/bin/gnu/h-x86_64-mingw32/bin/../lib/gcc/nios2-elf/5.2.0/mno-hw-mul\libgcc.a(muldf3.o)
 .debug_line    0x0000000000001d46      0x3ab c:/altera/16.0/nios2eds/bin/gnu/h-x86_64-mingw32/bin/../lib/gcc/nios2-elf/5.2.0/mno-hw-mul\libgcc.a(subdf3.o)
 .debug_line    0x00000000000020f1       0xc4 c:/altera/16.0/nios2eds/bin/gnu/h-x86_64-mingw32/bin/../lib/gcc/nios2-elf/5.2.0/mno-hw-mul\libgcc.a(extendsfdf2.o)
 .debug_line    0x00000000000021b5       0xfa c:/altera/16.0/nios2eds/bin/gnu/h-x86_64-mingw32/bin/../lib/gcc/nios2-elf/5.2.0/mno-hw-mul\libgcc.a(truncdfsf2.o)
 .debug_line    0x00000000000022af       0xbd c:/altera/16.0/nios2eds/bin/gnu/h-x86_64-mingw32/bin/../lib/gcc/nios2-elf/5.2.0/mno-hw-mul\libgcc.a(_clzsi2.o)
 .debug_line    0x000000000000236c       0x80 c:/altera/16.0/nios2eds/bin/gnu/h-x86_64-mingw32/bin/../lib/gcc/nios2-elf/5.2.0/mno-hw-mul\libgcc.a(lib2-mul.o)
 .debug_line    0x00000000000023ec       0x56 c:/altera/16.0/nios2eds/bin/gnu/h-x86_64-mingw32/bin/../lib/gcc/nios2-elf/5.2.0/mno-hw-mul\libgcc.a(_clz.o)
 .debug_line    0x0000000000002442      0x1a4 ../neural_bsp//newlib/nios2-elf/lib\libc.a(lib_a-atoi.o)
 .debug_line    0x00000000000025e6      0x192 ../neural_bsp//newlib/nios2-elf/lib\libc.a(lib_a-calloc.o)
 .debug_line    0x0000000000002778      0x17b ../neural_bsp//newlib/nios2-elf/lib\libc.a(lib_a-callocr.o)
 .debug_line    0x00000000000028f3      0x1a7 ../neural_bsp//newlib/nios2-elf/lib\libc.a(lib_a-drand48.o)
 .debug_line    0x0000000000002a9a      0x1b5 ../neural_bsp//newlib/nios2-elf/lib\libc.a(lib_a-erand48.o)
 .debug_line    0x0000000000002c4f      0x1f4 ../neural_bsp//newlib/nios2-elf/lib\libc.a(lib_a-getc.o)
 .debug_line    0x0000000000002e43      0x12f ../neural_bsp//newlib/nios2-elf/lib\libc.a(lib_a-impure.o)
 .debug_line    0x0000000000002f72      0x1a7 ../neural_bsp//newlib/nios2-elf/lib\libc.a(lib_a-malloc.o)
 .debug_line    0x0000000000003119      0x367 ../neural_bsp//newlib/nios2-elf/lib\libc.a(lib_a-mallocr.o)
 .debug_line    0x0000000000003480      0x163 ../neural_bsp//newlib/nios2-elf/lib\libc.a(lib_a-memset.o)
 .debug_line    0x00000000000035e3      0x1b6 ../neural_bsp//newlib/nios2-elf/lib\libc.a(lib_a-printf.o)
 .debug_line    0x0000000000003799      0x1a7 ../neural_bsp//newlib/nios2-elf/lib\libc.a(lib_a-putchar.o)
 .debug_line    0x0000000000003940      0x1ed ../neural_bsp//newlib/nios2-elf/lib\libc.a(lib_a-puts.o)
 .debug_line    0x0000000000003b2d      0x159 ../neural_bsp//newlib/nios2-elf/lib\libc.a(lib_a-rand48.o)
 .debug_line    0x0000000000003c86      0x193 ../neural_bsp//newlib/nios2-elf/lib\libc.a(lib_a-realloc.o)
 .debug_line    0x0000000000003e19      0x2b4 ../neural_bsp//newlib/nios2-elf/lib\libc.a(lib_a-reallocr.o)
 .debug_line    0x00000000000040cd      0x1b1 ../neural_bsp//newlib/nios2-elf/lib\libc.a(lib_a-rget.o)
 .debug_line    0x000000000000427e       0xe8 ../neural_bsp//newlib/nios2-elf/lib\libc.a(lib_a-s_ldexp.o)
 .debug_line    0x0000000000004366      0x17d ../neural_bsp//newlib/nios2-elf/lib\libc.a(lib_a-s_scalbn.o)
 .debug_line    0x00000000000044e3      0x19a ../neural_bsp//newlib/nios2-elf/lib\libc.a(lib_a-sbrkr.o)
 .debug_line    0x000000000000467d      0x1ac ../neural_bsp//newlib/nios2-elf/lib\libc.a(lib_a-srand48.o)
 .debug_line    0x0000000000004829      0x13c ../neural_bsp//newlib/nios2-elf/lib\libc.a(lib_a-strlen.o)
 .debug_line    0x0000000000004965      0x282 ../neural_bsp//newlib/nios2-elf/lib\libc.a(lib_a-strtol.o)
 .debug_line    0x0000000000004be7      0x15c ../neural_bsp//newlib/nios2-elf/lib\libc.a(lib_a-time.o)
 .debug_line    0x0000000000004d43      0x9ab ../neural_bsp//newlib/nios2-elf/lib\libc.a(lib_a-vfprintf.o)
 .debug_line    0x00000000000056ee      0x1de ../neural_bsp//newlib/nios2-elf/lib\libc.a(lib_a-wsetup.o)
 .debug_line    0x00000000000058cc       0xb8 ../neural_bsp//newlib/nios2-elf/lib\libc.a(lib_a-ctype_.o)
 .debug_line    0x0000000000005984      0x61f ../neural_bsp//newlib/nios2-elf/lib\libc.a(lib_a-dtoa.o)
 .debug_line    0x0000000000005fa3      0x14a ../neural_bsp//newlib/nios2-elf/lib\libc.a(lib_a-errno.o)
 .debug_line    0x00000000000060ed      0x264 ../neural_bsp//newlib/nios2-elf/lib\libc.a(lib_a-fflush.o)
 .debug_line    0x0000000000006351      0x2fa ../neural_bsp//newlib/nios2-elf/lib\libc.a(lib_a-findfp.o)
 .debug_line    0x000000000000664b      0x238 ../neural_bsp//newlib/nios2-elf/lib\libc.a(lib_a-freer.o)
 .debug_line    0x0000000000006883      0x28a ../neural_bsp//newlib/nios2-elf/lib\libc.a(lib_a-fvwrite.o)
 .debug_line    0x0000000000006b0d      0x1ff ../neural_bsp//newlib/nios2-elf/lib\libc.a(lib_a-fwalk.o)
 .debug_line    0x0000000000006d0c      0x1b8 ../neural_bsp//newlib/nios2-elf/lib\libc.a(lib_a-gettimeofdayr.o)
 .debug_line    0x0000000000006ec4       0x6d ../neural_bsp//newlib/nios2-elf/lib\libc.a(lib_a-int_errno.o)
 .debug_line    0x0000000000006f31      0x232 ../neural_bsp//newlib/nios2-elf/lib\libc.a(lib_a-locale.o)
 .debug_line    0x0000000000007163      0x1e7 ../neural_bsp//newlib/nios2-elf/lib\libc.a(lib_a-makebuf.o)
 .debug_line    0x000000000000734a      0x162 ../neural_bsp//newlib/nios2-elf/lib\libc.a(lib_a-memchr.o)
 .debug_line    0x00000000000074ac      0x152 ../neural_bsp//newlib/nios2-elf/lib\libc.a(lib_a-memcpy.o)
 .debug_line    0x00000000000075fe      0x166 ../neural_bsp//newlib/nios2-elf/lib\libc.a(lib_a-memmove.o)
 .debug_line    0x0000000000007764      0x651 ../neural_bsp//newlib/nios2-elf/lib\libc.a(lib_a-mprec.o)
 .debug_line    0x0000000000007db5      0x224 ../neural_bsp//newlib/nios2-elf/lib\libc.a(lib_a-putc.o)
 .debug_line    0x0000000000007fd9      0x1f5 ../neural_bsp//newlib/nios2-elf/lib\libc.a(lib_a-refill.o)
 .debug_line    0x00000000000081ce      0x141 ../neural_bsp//newlib/nios2-elf/lib\libc.a(lib_a-s_copysign.o)
 .debug_line    0x000000000000830f      0x13a ../neural_bsp//newlib/nios2-elf/lib\libc.a(lib_a-s_finite.o)
 .debug_line    0x0000000000008449      0x177 ../neural_bsp//newlib/nios2-elf/lib\libc.a(lib_a-s_fpclassify.o)
 .debug_line    0x00000000000085c0      0x207 ../neural_bsp//newlib/nios2-elf/lib\libc.a(lib_a-stdio.o)
 .debug_line    0x00000000000087c7       0xf0 ../neural_bsp//newlib/nios2-elf/lib\libc.a(lib_a-strcmp.o)
 .debug_line    0x00000000000088b7      0x66d ../neural_bsp//newlib/nios2-elf/lib\libc.a(lib_a-vfiprintf.o)
 .debug_line    0x0000000000008f24      0x1e3 ../neural_bsp//newlib/nios2-elf/lib\libc.a(lib_a-wbuf.o)
 .debug_line    0x0000000000009107      0x19b ../neural_bsp//newlib/nios2-elf/lib\libc.a(lib_a-writer.o)
 .debug_line    0x00000000000092a2      0x19b ../neural_bsp//newlib/nios2-elf/lib\libc.a(closer.o)
 .debug_line    0x000000000000943d      0x1db ../neural_bsp//newlib/nios2-elf/lib\libc.a(lib_a-fclose.o)
 .debug_line    0x0000000000009618      0x229 ../neural_bsp//newlib/nios2-elf/lib\libc.a(lib_a-fputwc.o)
 .debug_line    0x0000000000009841      0x1b0 ../neural_bsp//newlib/nios2-elf/lib\libc.a(lib_a-fstatr.o)
 .debug_line    0x00000000000099f1      0x19c ../neural_bsp//newlib/nios2-elf/lib\libc.a(lib_a-isattyr.o)
 .debug_line    0x0000000000009b8d      0x19b ../neural_bsp//newlib/nios2-elf/lib\libc.a(lib_a-lseekr.o)
 .debug_line    0x0000000000009d28      0x19a ../neural_bsp//newlib/nios2-elf/lib\libc.a(lib_a-readr.o)
 .debug_line    0x0000000000009ec2      0x1d4 ../neural_bsp//newlib/nios2-elf/lib\libc.a(lib_a-wcrtomb.o)
 .debug_line    0x000000000000a096      0x1ba ../neural_bsp//newlib/nios2-elf/lib\libc.a(lib_a-wctomb_r.o)
 .debug_line    0x000000000000a250      0x12f c:/altera/16.0/nios2eds/bin/gnu/h-x86_64-mingw32/bin/../lib/gcc/nios2-elf/5.2.0/mno-hw-mul\libgcc.a(_udivdi3.o)
 .debug_line    0x000000000000a37f      0x142 c:/altera/16.0/nios2eds/bin/gnu/h-x86_64-mingw32/bin/../lib/gcc/nios2-elf/5.2.0/mno-hw-mul\libgcc.a(_umoddi3.o)
 .debug_line    0x000000000000a4c1       0xad c:/altera/16.0/nios2eds/bin/gnu/h-x86_64-mingw32/bin/../lib/gcc/nios2-elf/5.2.0/mno-hw-mul\libgcc.a(eqdf2.o)
 .debug_line    0x000000000000a56e       0xce c:/altera/16.0/nios2eds/bin/gnu/h-x86_64-mingw32/bin/../lib/gcc/nios2-elf/5.2.0/mno-hw-mul\libgcc.a(gedf2.o)
 .debug_line    0x000000000000a63c       0x9b c:/altera/16.0/nios2eds/bin/gnu/h-x86_64-mingw32/bin/../lib/gcc/nios2-elf/5.2.0/mno-hw-mul\libgcc.a(fixdfsi.o)
 .debug_line    0x000000000000a6d7       0xa2 c:/altera/16.0/nios2eds/bin/gnu/h-x86_64-mingw32/bin/../lib/gcc/nios2-elf/5.2.0/mno-hw-mul\libgcc.a(floatsidf.o)
 .debug_line    0x000000000000a779       0x95 c:/altera/16.0/nios2eds/bin/gnu/h-x86_64-mingw32/bin/../lib/gcc/nios2-elf/5.2.0/mno-hw-mul\libgcc.a(floatunsidf.o)
 .debug_line    0x000000000000a80e      0x10b ../neural_bsp/\libhal_bsp.a(alt_close.o)
 .debug_line    0x000000000000a919       0xc8 ../neural_bsp/\libhal_bsp.a(alt_dev.o)
 .debug_line    0x000000000000a9e1       0x51 ../neural_bsp/\libhal_bsp.a(alt_errno.o)
 .debug_line    0x000000000000aa32      0x12f ../neural_bsp/\libhal_bsp.a(alt_fstat.o)
 .debug_line    0x000000000000ab61      0x12e ../neural_bsp/\libhal_bsp.a(alt_gettod.o)
 .debug_line    0x000000000000ac8f      0x133 ../neural_bsp/\libhal_bsp.a(alt_isatty.o)
 .debug_line    0x000000000000adc2       0x8e ../neural_bsp/\libhal_bsp.a(alt_load.o)
 .debug_line    0x000000000000ae50      0x128 ../neural_bsp/\libhal_bsp.a(alt_lseek.o)
 .debug_line    0x000000000000af78       0xa4 ../neural_bsp/\libhal_bsp.a(alt_main.o)
 .debug_line    0x000000000000b01c      0x112 ../neural_bsp/\libhal_bsp.a(alt_malloc_lock.o)
 .debug_line    0x000000000000b12e      0x199 ../neural_bsp/\libhal_bsp.a(alt_read.o)
 .debug_line    0x000000000000b2c7       0xb0 ../neural_bsp/\libhal_bsp.a(alt_release_fd.o)
 .debug_line    0x000000000000b377       0xc3 ../neural_bsp/\libhal_bsp.a(alt_sbrk.o)
 .debug_line    0x000000000000b43a       0xff ../neural_bsp/\libhal_bsp.a(alt_tick.o)
 .debug_line    0x000000000000b539      0x198 ../neural_bsp/\libhal_bsp.a(alt_write.o)
 .debug_line    0x000000000000b6d1      0x14b ../neural_bsp/\libhal_bsp.a(alt_sys_init.o)
 .debug_line    0x000000000000b81c      0x12f ../neural_bsp/\libhal_bsp.a(altera_avalon_jtag_uart_fd.o)
 .debug_line    0x000000000000b94b      0x18b ../neural_bsp/\libhal_bsp.a(altera_avalon_jtag_uart_init.o)
 .debug_line    0x000000000000bad6      0x131 ../neural_bsp/\libhal_bsp.a(altera_avalon_jtag_uart_ioctl.o)
 .debug_line    0x000000000000bc07      0x171 ../neural_bsp/\libhal_bsp.a(altera_avalon_jtag_uart_read.o)
 .debug_line    0x000000000000bd78      0x170 ../neural_bsp/\libhal_bsp.a(altera_avalon_jtag_uart_write.o)
 .debug_line    0x000000000000bee8      0x203 ../neural_bsp/\libhal_bsp.a(altera_hostfs.o)
 .debug_line    0x000000000000c0eb       0xfa ../neural_bsp/\libhal_bsp.a(alt_alarm_start.o)
 .debug_line    0x000000000000c1e5       0x51 ../neural_bsp/\libhal_bsp.a(alt_dcache_flush_all.o)
 .debug_line    0x000000000000c236       0xd0 ../neural_bsp/\libhal_bsp.a(alt_dev_llist_insert.o)
 .debug_line    0x000000000000c306       0x59 ../neural_bsp/\libhal_bsp.a(alt_do_ctors.o)
 .debug_line    0x000000000000c35f       0x59 ../neural_bsp/\libhal_bsp.a(alt_do_dtors.o)
 .debug_line    0x000000000000c3b8       0xb6 ../neural_bsp/\libhal_bsp.a(alt_fs_reg.o)
 .debug_line    0x000000000000c46e       0x4f ../neural_bsp/\libhal_bsp.a(alt_icache_flush_all.o)
 .debug_line    0x000000000000c4bd       0xef ../neural_bsp/\libhal_bsp.a(alt_iic.o)
 .debug_line    0x000000000000c5ac       0xdb ../neural_bsp/\libhal_bsp.a(alt_iic_isr_register.o)
 .debug_line    0x000000000000c687      0x105 ../neural_bsp/\libhal_bsp.a(alt_io_redirect.o)
 .debug_line    0x000000000000c78c       0x6b ../neural_bsp/\libhal_bsp.a(alt_irq_entry.o)
 .debug_line    0x000000000000c7f7       0xaa ../neural_bsp/\libhal_bsp.a(alt_irq_handler.o)
 .debug_line    0x000000000000c8a1       0x50 ../neural_bsp/\libhal_bsp.a(alt_irq_vars.o)
 .debug_line    0x000000000000c8f1      0x12d ../neural_bsp/\libhal_bsp.a(alt_open.o)
 .debug_line    0x000000000000ca1e       0x51 ../neural_bsp/\libhal_bsp.a(altera_nios2_gen2_irq.o)
 .debug_line    0x000000000000ca6f       0xb3 ../neural_bsp/\libhal_bsp.a(alt_exception_entry.o)
 .debug_line    0x000000000000cb22       0xb5 ../neural_bsp/\libhal_bsp.a(alt_find_dev.o)
 .debug_line    0x000000000000cbd7       0xd1 ../neural_bsp/\libhal_bsp.a(alt_find_file.o)
 .debug_line    0x000000000000cca8       0xd8 ../neural_bsp/\libhal_bsp.a(alt_get_fd.o)
 .debug_line    0x000000000000cd80       0xb9 ../neural_bsp/\libhal_bsp.a(alt_instruction_exception_entry.o)
 .debug_line    0x000000000000ce39       0xd9 ../neural_bsp//newlib/nios2-elf/lib\libc.a(lib_a-atexit.o)
 .debug_line    0x000000000000cf12      0x194 ../neural_bsp//newlib/nios2-elf/lib\libc.a(lib_a-exit.o)
 .debug_line    0x000000000000d0a6      0x14c ../neural_bsp//newlib/nios2-elf/lib\libc.a(lib_a-memcmp.o)
 .debug_line    0x000000000000d1f2      0x172 ../neural_bsp//newlib/nios2-elf/lib\libc.a(lib_a-__atexit.o)
 .debug_line    0x000000000000d364      0x1b1 ../neural_bsp//newlib/nios2-elf/lib\libc.a(lib_a-__call_atexit.o)
 .debug_line    0x000000000000d515       0x91 c:/altera/16.0/nios2eds/bin/gnu/h-x86_64-mingw32/bin/../lib/gcc/nios2-elf/5.2.0/mno-hw-mul\libgcc.a(_muldi3.o)
 .debug_line    0x000000000000d5a6       0x71 ../neural_bsp/\libhal_bsp.a(alt_exit.o)

.debug_frame    0x0000000000000000     0x3258
 *(.debug_frame)
 .debug_frame   0x0000000000000000      0x114 obj/default/formula.o
 .debug_frame   0x0000000000000114       0x90 obj/default/main.o
 .debug_frame   0x00000000000001a4      0x2f0 obj/default/types.o
 .debug_frame   0x0000000000000494       0x38 c:/altera/16.0/nios2eds/bin/gnu/h-x86_64-mingw32/bin/../lib/gcc/nios2-elf/5.2.0/mno-hw-mul\libgcc.a(_fixunssfsi.o)
 .debug_frame   0x00000000000004cc       0x50 c:/altera/16.0/nios2eds/bin/gnu/h-x86_64-mingw32/bin/../lib/gcc/nios2-elf/5.2.0/mno-hw-mul\libgcc.a(lib2-divmod.o)
 .debug_frame   0x000000000000051c       0x3c c:/altera/16.0/nios2eds/bin/gnu/h-x86_64-mingw32/bin/../lib/gcc/nios2-elf/5.2.0/mno-hw-mul\libgcc.a(addsf3.o)
 .debug_frame   0x0000000000000558       0x58 c:/altera/16.0/nios2eds/bin/gnu/h-x86_64-mingw32/bin/../lib/gcc/nios2-elf/5.2.0/mno-hw-mul\libgcc.a(divsf3.o)
 .debug_frame   0x00000000000005b0       0x20 c:/altera/16.0/nios2eds/bin/gnu/h-x86_64-mingw32/bin/../lib/gcc/nios2-elf/5.2.0/mno-hw-mul\libgcc.a(eqsf2.o)
 .debug_frame   0x00000000000005d0       0x20 c:/altera/16.0/nios2eds/bin/gnu/h-x86_64-mingw32/bin/../lib/gcc/nios2-elf/5.2.0/mno-hw-mul\libgcc.a(gesf2.o)
 .debug_frame   0x00000000000005f0       0x20 c:/altera/16.0/nios2eds/bin/gnu/h-x86_64-mingw32/bin/../lib/gcc/nios2-elf/5.2.0/mno-hw-mul\libgcc.a(lesf2.o)
 .debug_frame   0x0000000000000610       0x58 c:/altera/16.0/nios2eds/bin/gnu/h-x86_64-mingw32/bin/../lib/gcc/nios2-elf/5.2.0/mno-hw-mul\libgcc.a(mulsf3.o)
 .debug_frame   0x0000000000000668       0x40 c:/altera/16.0/nios2eds/bin/gnu/h-x86_64-mingw32/bin/../lib/gcc/nios2-elf/5.2.0/mno-hw-mul\libgcc.a(subsf3.o)
 .debug_frame   0x00000000000006a8       0x20 c:/altera/16.0/nios2eds/bin/gnu/h-x86_64-mingw32/bin/../lib/gcc/nios2-elf/5.2.0/mno-hw-mul\libgcc.a(fixsfsi.o)
 .debug_frame   0x00000000000006c8       0x38 c:/altera/16.0/nios2eds/bin/gnu/h-x86_64-mingw32/bin/../lib/gcc/nios2-elf/5.2.0/mno-hw-mul\libgcc.a(floatsisf.o)
 .debug_frame   0x0000000000000700       0x34 c:/altera/16.0/nios2eds/bin/gnu/h-x86_64-mingw32/bin/../lib/gcc/nios2-elf/5.2.0/mno-hw-mul\libgcc.a(floatunsisf.o)
 .debug_frame   0x0000000000000734       0x40 c:/altera/16.0/nios2eds/bin/gnu/h-x86_64-mingw32/bin/../lib/gcc/nios2-elf/5.2.0/mno-hw-mul\libgcc.a(adddf3.o)
 .debug_frame   0x0000000000000774       0x58 c:/altera/16.0/nios2eds/bin/gnu/h-x86_64-mingw32/bin/../lib/gcc/nios2-elf/5.2.0/mno-hw-mul\libgcc.a(divdf3.o)
 .debug_frame   0x00000000000007cc       0x20 c:/altera/16.0/nios2eds/bin/gnu/h-x86_64-mingw32/bin/../lib/gcc/nios2-elf/5.2.0/mno-hw-mul\libgcc.a(ledf2.o)
 .debug_frame   0x00000000000007ec       0x58 c:/altera/16.0/nios2eds/bin/gnu/h-x86_64-mingw32/bin/../lib/gcc/nios2-elf/5.2.0/mno-hw-mul\libgcc.a(muldf3.o)
 .debug_frame   0x0000000000000844       0x44 c:/altera/16.0/nios2eds/bin/gnu/h-x86_64-mingw32/bin/../lib/gcc/nios2-elf/5.2.0/mno-hw-mul\libgcc.a(subdf3.o)
 .debug_frame   0x0000000000000888       0x38 c:/altera/16.0/nios2eds/bin/gnu/h-x86_64-mingw32/bin/../lib/gcc/nios2-elf/5.2.0/mno-hw-mul\libgcc.a(extendsfdf2.o)
 .debug_frame   0x00000000000008c0       0x20 c:/altera/16.0/nios2eds/bin/gnu/h-x86_64-mingw32/bin/../lib/gcc/nios2-elf/5.2.0/mno-hw-mul\libgcc.a(truncdfsf2.o)
 .debug_frame   0x00000000000008e0       0x20 c:/altera/16.0/nios2eds/bin/gnu/h-x86_64-mingw32/bin/../lib/gcc/nios2-elf/5.2.0/mno-hw-mul\libgcc.a(_clzsi2.o)
 .debug_frame   0x0000000000000900       0x20 c:/altera/16.0/nios2eds/bin/gnu/h-x86_64-mingw32/bin/../lib/gcc/nios2-elf/5.2.0/mno-hw-mul\libgcc.a(lib2-mul.o)
 .debug_frame   0x0000000000000920       0x60 ../neural_bsp//newlib/nios2-elf/lib\libc.a(lib_a-atoi.o)
 .debug_frame   0x0000000000000980       0x38 ../neural_bsp//newlib/nios2-elf/lib\libc.a(lib_a-calloc.o)
 .debug_frame   0x00000000000009b8       0x38 ../neural_bsp//newlib/nios2-elf/lib\libc.a(lib_a-callocr.o)
 .debug_frame   0x00000000000009f0       0x60 ../neural_bsp//newlib/nios2-elf/lib\libc.a(lib_a-drand48.o)
 .debug_frame   0x0000000000000a50       0x6c ../neural_bsp//newlib/nios2-elf/lib\libc.a(lib_a-erand48.o)
 .debug_frame   0x0000000000000abc       0x68 ../neural_bsp//newlib/nios2-elf/lib\libc.a(lib_a-getc.o)
 .debug_frame   0x0000000000000b24       0x60 ../neural_bsp//newlib/nios2-elf/lib\libc.a(lib_a-malloc.o)
 .debug_frame   0x0000000000000b84       0x60 ../neural_bsp//newlib/nios2-elf/lib\libc.a(lib_a-mallocr.o)
 .debug_frame   0x0000000000000be4       0x34 ../neural_bsp//newlib/nios2-elf/lib\libc.a(lib_a-memset.o)
 .debug_frame   0x0000000000000c18       0x60 ../neural_bsp//newlib/nios2-elf/lib\libc.a(lib_a-printf.o)
 .debug_frame   0x0000000000000c78       0x60 ../neural_bsp//newlib/nios2-elf/lib\libc.a(lib_a-putchar.o)
 .debug_frame   0x0000000000000cd8       0x60 ../neural_bsp//newlib/nios2-elf/lib\libc.a(lib_a-puts.o)
 .debug_frame   0x0000000000000d38       0x40 ../neural_bsp//newlib/nios2-elf/lib\libc.a(lib_a-rand48.o)
 .debug_frame   0x0000000000000d78       0x38 ../neural_bsp//newlib/nios2-elf/lib\libc.a(lib_a-realloc.o)
 .debug_frame   0x0000000000000db0       0x38 ../neural_bsp//newlib/nios2-elf/lib\libc.a(lib_a-reallocr.o)
 .debug_frame   0x0000000000000de8       0x64 ../neural_bsp//newlib/nios2-elf/lib\libc.a(lib_a-rget.o)
 .debug_frame   0x0000000000000e4c       0x38 ../neural_bsp//newlib/nios2-elf/lib\libc.a(lib_a-s_ldexp.o)
 .debug_frame   0x0000000000000e84       0x38 ../neural_bsp//newlib/nios2-elf/lib\libc.a(lib_a-s_scalbn.o)
 .debug_frame   0x0000000000000ebc       0x38 ../neural_bsp//newlib/nios2-elf/lib\libc.a(lib_a-sbrkr.o)
 .debug_frame   0x0000000000000ef4       0x5c ../neural_bsp//newlib/nios2-elf/lib\libc.a(lib_a-srand48.o)
 .debug_frame   0x0000000000000f50       0x34 ../neural_bsp//newlib/nios2-elf/lib\libc.a(lib_a-strlen.o)
 .debug_frame   0x0000000000000f84       0x80 ../neural_bsp//newlib/nios2-elf/lib\libc.a(lib_a-strtol.o)
 .debug_frame   0x0000000000001004       0x38 ../neural_bsp//newlib/nios2-elf/lib\libc.a(lib_a-time.o)
 .debug_frame   0x000000000000103c      0x110 ../neural_bsp//newlib/nios2-elf/lib\libc.a(lib_a-vfprintf.o)
 .debug_frame   0x000000000000114c       0x40 ../neural_bsp//newlib/nios2-elf/lib\libc.a(lib_a-wsetup.o)
 .debug_frame   0x000000000000118c       0x74 ../neural_bsp//newlib/nios2-elf/lib\libc.a(lib_a-dtoa.o)
 .debug_frame   0x0000000000001200       0x34 ../neural_bsp//newlib/nios2-elf/lib\libc.a(lib_a-errno.o)
 .debug_frame   0x0000000000001234       0xa0 ../neural_bsp//newlib/nios2-elf/lib\libc.a(lib_a-fflush.o)
 .debug_frame   0x00000000000012d4      0x230 ../neural_bsp//newlib/nios2-elf/lib\libc.a(lib_a-findfp.o)
 .debug_frame   0x0000000000001504       0x60 ../neural_bsp//newlib/nios2-elf/lib\libc.a(lib_a-freer.o)
 .debug_frame   0x0000000000001564       0x58 ../neural_bsp//newlib/nios2-elf/lib\libc.a(lib_a-fvwrite.o)
 .debug_frame   0x00000000000015bc       0x88 ../neural_bsp//newlib/nios2-elf/lib\libc.a(lib_a-fwalk.o)
 .debug_frame   0x0000000000001644       0x38 ../neural_bsp//newlib/nios2-elf/lib\libc.a(lib_a-gettimeofdayr.o)
 .debug_frame   0x000000000000167c      0x13c ../neural_bsp//newlib/nios2-elf/lib\libc.a(lib_a-locale.o)
 .debug_frame   0x00000000000017b8       0x4c ../neural_bsp//newlib/nios2-elf/lib\libc.a(lib_a-makebuf.o)
 .debug_frame   0x0000000000001804       0x34 ../neural_bsp//newlib/nios2-elf/lib\libc.a(lib_a-memchr.o)
 .debug_frame   0x0000000000001838       0x34 ../neural_bsp//newlib/nios2-elf/lib\libc.a(lib_a-memcpy.o)
 .debug_frame   0x000000000000186c       0x34 ../neural_bsp//newlib/nios2-elf/lib\libc.a(lib_a-memmove.o)
 .debug_frame   0x00000000000018a0      0x304 ../neural_bsp//newlib/nios2-elf/lib\libc.a(lib_a-mprec.o)
 .debug_frame   0x0000000000001ba4       0x68 ../neural_bsp//newlib/nios2-elf/lib\libc.a(lib_a-putc.o)
 .debug_frame   0x0000000000001c0c       0x68 ../neural_bsp//newlib/nios2-elf/lib\libc.a(lib_a-refill.o)
 .debug_frame   0x0000000000001c74       0x34 ../neural_bsp//newlib/nios2-elf/lib\libc.a(lib_a-s_copysign.o)
 .debug_frame   0x0000000000001ca8       0x34 ../neural_bsp//newlib/nios2-elf/lib\libc.a(lib_a-s_finite.o)
 .debug_frame   0x0000000000001cdc       0x34 ../neural_bsp//newlib/nios2-elf/lib\libc.a(lib_a-s_fpclassify.o)
 .debug_frame   0x0000000000001d10       0xe8 ../neural_bsp//newlib/nios2-elf/lib\libc.a(lib_a-stdio.o)
 .debug_frame   0x0000000000001df8       0x34 ../neural_bsp//newlib/nios2-elf/lib\libc.a(lib_a-strcmp.o)
 .debug_frame   0x0000000000001e2c       0xe8 ../neural_bsp//newlib/nios2-elf/lib\libc.a(lib_a-vfiprintf.o)
 .debug_frame   0x0000000000001f14       0x70 ../neural_bsp//newlib/nios2-elf/lib\libc.a(lib_a-wbuf.o)
 .debug_frame   0x0000000000001f84       0x38 ../neural_bsp//newlib/nios2-elf/lib\libc.a(lib_a-writer.o)
 .debug_frame   0x0000000000001fbc       0x38 ../neural_bsp//newlib/nios2-elf/lib\libc.a(closer.o)
 .debug_frame   0x0000000000001ff4       0x68 ../neural_bsp//newlib/nios2-elf/lib\libc.a(lib_a-fclose.o)
 .debug_frame   0x000000000000205c       0x88 ../neural_bsp//newlib/nios2-elf/lib\libc.a(lib_a-fputwc.o)
 .debug_frame   0x00000000000020e4       0x38 ../neural_bsp//newlib/nios2-elf/lib\libc.a(lib_a-fstatr.o)
 .debug_frame   0x000000000000211c       0x38 ../neural_bsp//newlib/nios2-elf/lib\libc.a(lib_a-isattyr.o)
 .debug_frame   0x0000000000002154       0x38 ../neural_bsp//newlib/nios2-elf/lib\libc.a(lib_a-lseekr.o)
 .debug_frame   0x000000000000218c       0x38 ../neural_bsp//newlib/nios2-elf/lib\libc.a(lib_a-readr.o)
 .debug_frame   0x00000000000021c4       0x68 ../neural_bsp//newlib/nios2-elf/lib\libc.a(lib_a-wcrtomb.o)
 .debug_frame   0x000000000000222c       0x60 ../neural_bsp//newlib/nios2-elf/lib\libc.a(lib_a-wctomb_r.o)
 .debug_frame   0x000000000000228c       0x54 c:/altera/16.0/nios2eds/bin/gnu/h-x86_64-mingw32/bin/../lib/gcc/nios2-elf/5.2.0/mno-hw-mul\libgcc.a(_udivdi3.o)
 .debug_frame   0x00000000000022e0       0x54 c:/altera/16.0/nios2eds/bin/gnu/h-x86_64-mingw32/bin/../lib/gcc/nios2-elf/5.2.0/mno-hw-mul\libgcc.a(_umoddi3.o)
 .debug_frame   0x0000000000002334       0x20 c:/altera/16.0/nios2eds/bin/gnu/h-x86_64-mingw32/bin/../lib/gcc/nios2-elf/5.2.0/mno-hw-mul\libgcc.a(eqdf2.o)
 .debug_frame   0x0000000000002354       0x20 c:/altera/16.0/nios2eds/bin/gnu/h-x86_64-mingw32/bin/../lib/gcc/nios2-elf/5.2.0/mno-hw-mul\libgcc.a(gedf2.o)
 .debug_frame   0x0000000000002374       0x20 c:/altera/16.0/nios2eds/bin/gnu/h-x86_64-mingw32/bin/../lib/gcc/nios2-elf/5.2.0/mno-hw-mul\libgcc.a(fixdfsi.o)
 .debug_frame   0x0000000000002394       0x38 c:/altera/16.0/nios2eds/bin/gnu/h-x86_64-mingw32/bin/../lib/gcc/nios2-elf/5.2.0/mno-hw-mul\libgcc.a(floatsidf.o)
 .debug_frame   0x00000000000023cc       0x34 c:/altera/16.0/nios2eds/bin/gnu/h-x86_64-mingw32/bin/../lib/gcc/nios2-elf/5.2.0/mno-hw-mul\libgcc.a(floatunsidf.o)
 .debug_frame   0x0000000000002400       0x60 ../neural_bsp/\libhal_bsp.a(alt_close.o)
 .debug_frame   0x0000000000002460       0x34 ../neural_bsp/\libhal_bsp.a(alt_dev.o)
 .debug_frame   0x0000000000002494       0x60 ../neural_bsp/\libhal_bsp.a(alt_fstat.o)
 .debug_frame   0x00000000000024f4       0x50 ../neural_bsp/\libhal_bsp.a(alt_gettod.o)
 .debug_frame   0x0000000000002544       0x60 ../neural_bsp/\libhal_bsp.a(alt_isatty.o)
 .debug_frame   0x00000000000025a4       0x5c ../neural_bsp/\libhal_bsp.a(alt_load.o)
 .debug_frame   0x0000000000002600       0x60 ../neural_bsp/\libhal_bsp.a(alt_lseek.o)
 .debug_frame   0x0000000000002660       0x2c ../neural_bsp/\libhal_bsp.a(alt_main.o)
 .debug_frame   0x000000000000268c       0x58 ../neural_bsp/\libhal_bsp.a(alt_malloc_lock.o)
 .debug_frame   0x00000000000026e4       0x60 ../neural_bsp/\libhal_bsp.a(alt_read.o)
 .debug_frame   0x0000000000002744       0x3c ../neural_bsp/\libhal_bsp.a(alt_release_fd.o)
 .debug_frame   0x0000000000002780       0x34 ../neural_bsp/\libhal_bsp.a(alt_sbrk.o)
 .debug_frame   0x00000000000027b4       0x5c ../neural_bsp/\libhal_bsp.a(alt_tick.o)
 .debug_frame   0x0000000000002810       0x60 ../neural_bsp/\libhal_bsp.a(alt_write.o)
 .debug_frame   0x0000000000002870       0x88 ../neural_bsp/\libhal_bsp.a(alt_sys_init.o)
 .debug_frame   0x00000000000028f8       0xb0 ../neural_bsp/\libhal_bsp.a(altera_avalon_jtag_uart_fd.o)
 .debug_frame   0x00000000000029a8       0xa4 ../neural_bsp/\libhal_bsp.a(altera_avalon_jtag_uart_init.o)
 .debug_frame   0x0000000000002a4c       0x34 ../neural_bsp/\libhal_bsp.a(altera_avalon_jtag_uart_ioctl.o)
 .debug_frame   0x0000000000002a80       0x38 ../neural_bsp/\libhal_bsp.a(altera_avalon_jtag_uart_read.o)
 .debug_frame   0x0000000000002ab8       0x38 ../neural_bsp/\libhal_bsp.a(altera_avalon_jtag_uart_write.o)
 .debug_frame   0x0000000000002af0       0xe8 ../neural_bsp/\libhal_bsp.a(altera_hostfs.o)
 .debug_frame   0x0000000000002bd8       0x34 ../neural_bsp/\libhal_bsp.a(alt_alarm_start.o)
 .debug_frame   0x0000000000002c0c       0x34 ../neural_bsp/\libhal_bsp.a(alt_dcache_flush_all.o)
 .debug_frame   0x0000000000002c40       0x60 ../neural_bsp/\libhal_bsp.a(alt_dev_llist_insert.o)
 .debug_frame   0x0000000000002ca0       0x38 ../neural_bsp/\libhal_bsp.a(alt_do_ctors.o)
 .debug_frame   0x0000000000002cd8       0x38 ../neural_bsp/\libhal_bsp.a(alt_do_dtors.o)
 .debug_frame   0x0000000000002d10       0x34 ../neural_bsp/\libhal_bsp.a(alt_fs_reg.o)
 .debug_frame   0x0000000000002d44       0x34 ../neural_bsp/\libhal_bsp.a(alt_icache_flush_all.o)
 .debug_frame   0x0000000000002d78       0xa4 ../neural_bsp/\libhal_bsp.a(alt_iic.o)
 .debug_frame   0x0000000000002e1c       0x38 ../neural_bsp/\libhal_bsp.a(alt_iic_isr_register.o)
 .debug_frame   0x0000000000002e54       0x64 ../neural_bsp/\libhal_bsp.a(alt_io_redirect.o)
 .debug_frame   0x0000000000002eb8       0x38 ../neural_bsp/\libhal_bsp.a(alt_irq_handler.o)
 .debug_frame   0x0000000000002ef0       0x8c ../neural_bsp/\libhal_bsp.a(alt_open.o)
 .debug_frame   0x0000000000002f7c       0x34 ../neural_bsp/\libhal_bsp.a(altera_nios2_gen2_irq.o)
 .debug_frame   0x0000000000002fb0       0x38 ../neural_bsp/\libhal_bsp.a(alt_find_dev.o)
 .debug_frame   0x0000000000002fe8       0x38 ../neural_bsp/\libhal_bsp.a(alt_find_file.o)
 .debug_frame   0x0000000000003020       0x3c ../neural_bsp/\libhal_bsp.a(alt_get_fd.o)
 .debug_frame   0x000000000000305c       0x5c ../neural_bsp/\libhal_bsp.a(alt_instruction_exception_entry.o)
 .debug_frame   0x00000000000030b8       0x38 ../neural_bsp//newlib/nios2-elf/lib\libc.a(lib_a-atexit.o)
 .debug_frame   0x00000000000030f0       0x2c ../neural_bsp//newlib/nios2-elf/lib\libc.a(lib_a-exit.o)
 .debug_frame   0x000000000000311c       0x34 ../neural_bsp//newlib/nios2-elf/lib\libc.a(lib_a-memcmp.o)
 .debug_frame   0x0000000000003150       0x40 ../neural_bsp//newlib/nios2-elf/lib\libc.a(lib_a-__atexit.o)
 .debug_frame   0x0000000000003190       0x48 ../neural_bsp//newlib/nios2-elf/lib\libc.a(lib_a-__call_atexit.o)
 .debug_frame   0x00000000000031d8       0x54 c:/altera/16.0/nios2eds/bin/gnu/h-x86_64-mingw32/bin/../lib/gcc/nios2-elf/5.2.0/mno-hw-mul\libgcc.a(_muldi3.o)
 .debug_frame   0x000000000000322c       0x2c ../neural_bsp/\libhal_bsp.a(alt_exit.o)

.debug_str      0x0000000000000000     0x47e4
 *(.debug_str)
 .debug_str     0x0000000000000000      0x12e obj/default/formula.o
                                        0x188 (size before relaxing)
 .debug_str     0x000000000000012e      0x452 obj/default/main.o
                                        0x654 (size before relaxing)
 .debug_str     0x0000000000000580      0x114 obj/default/types.o
                                        0x2d9 (size before relaxing)
 .debug_str     0x0000000000000694      0x162 c:/altera/16.0/nios2eds/bin/gnu/h-x86_64-mingw32/bin/../lib/gcc/nios2-elf/5.2.0/mno-hw-mul\libgcc.a(_fixunssfsi.o)
                                        0x1eb (size before relaxing)
 .debug_str     0x00000000000007f6       0x7f c:/altera/16.0/nios2eds/bin/gnu/h-x86_64-mingw32/bin/../lib/gcc/nios2-elf/5.2.0/mno-hw-mul\libgcc.a(lib2-divmod.o)
                                        0x1d2 (size before relaxing)
 .debug_str     0x0000000000000875       0xed c:/altera/16.0/nios2eds/bin/gnu/h-x86_64-mingw32/bin/../lib/gcc/nios2-elf/5.2.0/mno-hw-mul\libgcc.a(addsf3.o)
                                        0x283 (size before relaxing)
 .debug_str     0x0000000000000962       0xd1 c:/altera/16.0/nios2eds/bin/gnu/h-x86_64-mingw32/bin/../lib/gcc/nios2-elf/5.2.0/mno-hw-mul\libgcc.a(divsf3.o)
                                        0x2a0 (size before relaxing)
 .debug_str     0x0000000000000a33       0x37 c:/altera/16.0/nios2eds/bin/gnu/h-x86_64-mingw32/bin/../lib/gcc/nios2-elf/5.2.0/mno-hw-mul\libgcc.a(eqsf2.o)
                                        0x1f3 (size before relaxing)
 .debug_str     0x0000000000000a6a       0x5b c:/altera/16.0/nios2eds/bin/gnu/h-x86_64-mingw32/bin/../lib/gcc/nios2-elf/5.2.0/mno-hw-mul\libgcc.a(gesf2.o)
                                        0x217 (size before relaxing)
 .debug_str     0x0000000000000ac5       0x37 c:/altera/16.0/nios2eds/bin/gnu/h-x86_64-mingw32/bin/../lib/gcc/nios2-elf/5.2.0/mno-hw-mul\libgcc.a(lesf2.o)
                                        0x217 (size before relaxing)
 .debug_str     0x0000000000000afc       0x9b c:/altera/16.0/nios2eds/bin/gnu/h-x86_64-mingw32/bin/../lib/gcc/nios2-elf/5.2.0/mno-hw-mul\libgcc.a(mulsf3.o)
                                        0x2a0 (size before relaxing)
 .debug_str     0x0000000000000b97       0x39 c:/altera/16.0/nios2eds/bin/gnu/h-x86_64-mingw32/bin/../lib/gcc/nios2-elf/5.2.0/mno-hw-mul\libgcc.a(subsf3.o)
                                        0x283 (size before relaxing)
 .debug_str     0x0000000000000bd0       0x4e c:/altera/16.0/nios2eds/bin/gnu/h-x86_64-mingw32/bin/../lib/gcc/nios2-elf/5.2.0/mno-hw-mul\libgcc.a(fixsfsi.o)
                                        0x219 (size before relaxing)
 .debug_str     0x0000000000000c1e       0x6c c:/altera/16.0/nios2eds/bin/gnu/h-x86_64-mingw32/bin/../lib/gcc/nios2-elf/5.2.0/mno-hw-mul\libgcc.a(floatsisf.o)
                                        0x24e (size before relaxing)
 .debug_str     0x0000000000000c8a       0x43 c:/altera/16.0/nios2eds/bin/gnu/h-x86_64-mingw32/bin/../lib/gcc/nios2-elf/5.2.0/mno-hw-mul\libgcc.a(floatunsisf.o)
                                        0x24b (size before relaxing)
 .debug_str     0x0000000000000ccd       0x9e c:/altera/16.0/nios2eds/bin/gnu/h-x86_64-mingw32/bin/../lib/gcc/nios2-elf/5.2.0/mno-hw-mul\libgcc.a(adddf3.o)
                                        0x2a9 (size before relaxing)
 .debug_str     0x0000000000000d6b      0x106 c:/altera/16.0/nios2eds/bin/gnu/h-x86_64-mingw32/bin/../lib/gcc/nios2-elf/5.2.0/mno-hw-mul\libgcc.a(divdf3.o)
                                        0x361 (size before relaxing)
 .debug_str     0x0000000000000e71       0x37 c:/altera/16.0/nios2eds/bin/gnu/h-x86_64-mingw32/bin/../lib/gcc/nios2-elf/5.2.0/mno-hw-mul\libgcc.a(ledf2.o)
                                        0x233 (size before relaxing)
 .debug_str     0x0000000000000ea8      0x15e c:/altera/16.0/nios2eds/bin/gnu/h-x86_64-mingw32/bin/../lib/gcc/nios2-elf/5.2.0/mno-hw-mul\libgcc.a(muldf3.o)
                                        0x3c2 (size before relaxing)
 .debug_str     0x0000000000001006       0x39 c:/altera/16.0/nios2eds/bin/gnu/h-x86_64-mingw32/bin/../lib/gcc/nios2-elf/5.2.0/mno-hw-mul\libgcc.a(subdf3.o)
                                        0x2a9 (size before relaxing)
 .debug_str     0x000000000000103f       0x50 c:/altera/16.0/nios2eds/bin/gnu/h-x86_64-mingw32/bin/../lib/gcc/nios2-elf/5.2.0/mno-hw-mul\libgcc.a(extendsfdf2.o)
                                        0x24f (size before relaxing)
 .debug_str     0x000000000000108f       0x41 c:/altera/16.0/nios2eds/bin/gnu/h-x86_64-mingw32/bin/../lib/gcc/nios2-elf/5.2.0/mno-hw-mul\libgcc.a(truncdfsf2.o)
                                        0x259 (size before relaxing)
 .debug_str     0x00000000000010d0       0x20 c:/altera/16.0/nios2eds/bin/gnu/h-x86_64-mingw32/bin/../lib/gcc/nios2-elf/5.2.0/mno-hw-mul\libgcc.a(_clzsi2.o)
                                        0x200 (size before relaxing)
 .debug_str     0x00000000000010f0       0x40 c:/altera/16.0/nios2eds/bin/gnu/h-x86_64-mingw32/bin/../lib/gcc/nios2-elf/5.2.0/mno-hw-mul\libgcc.a(lib2-mul.o)
                                        0x193 (size before relaxing)
 .debug_str     0x0000000000001130      0x1e3 c:/altera/16.0/nios2eds/bin/gnu/h-x86_64-mingw32/bin/../lib/gcc/nios2-elf/5.2.0/mno-hw-mul\libgcc.a(_clz.o)
 .debug_str     0x0000000000001130      0x100 ../neural_bsp//newlib/nios2-elf/lib\libc.a(lib_a-atoi.o)
                                        0x554 (size before relaxing)
 .debug_str     0x0000000000001230       0x52 ../neural_bsp//newlib/nios2-elf/lib\libc.a(lib_a-calloc.o)
                                        0x568 (size before relaxing)
 .debug_str     0x0000000000001282       0x90 ../neural_bsp//newlib/nios2-elf/lib\libc.a(lib_a-callocr.o)
                                        0x59a (size before relaxing)
 .debug_str     0x0000000000001312       0x5f ../neural_bsp//newlib/nios2-elf/lib\libc.a(lib_a-drand48.o)
                                        0x576 (size before relaxing)
 .debug_str     0x0000000000001371       0x65 ../neural_bsp//newlib/nios2-elf/lib\libc.a(lib_a-erand48.o)
                                        0x57c (size before relaxing)
 .debug_str     0x00000000000013d6       0x65 ../neural_bsp//newlib/nios2-elf/lib\libc.a(lib_a-getc.o)
                                        0x581 (size before relaxing)
 .debug_str     0x000000000000143b       0x69 ../neural_bsp//newlib/nios2-elf/lib\libc.a(lib_a-impure.o)
                                        0x573 (size before relaxing)
 .debug_str     0x00000000000014a4       0x57 ../neural_bsp//newlib/nios2-elf/lib\libc.a(lib_a-malloc.o)
                                        0x574 (size before relaxing)
 .debug_str     0x00000000000014fb      0x1a1 ../neural_bsp//newlib/nios2-elf/lib\libc.a(lib_a-mallocr.o)
                                        0x749 (size before relaxing)
 .debug_str     0x000000000000169c       0x66 ../neural_bsp//newlib/nios2-elf/lib\libc.a(lib_a-memset.o)
                                        0x1b5 (size before relaxing)
 .debug_str     0x0000000000001702       0x75 ../neural_bsp//newlib/nios2-elf/lib\libc.a(lib_a-printf.o)
                                        0x58e (size before relaxing)
 .debug_str     0x0000000000001777       0x5e ../neural_bsp//newlib/nios2-elf/lib\libc.a(lib_a-putchar.o)
                                        0x56e (size before relaxing)
 .debug_str     0x00000000000017d5       0x91 ../neural_bsp//newlib/nios2-elf/lib\libc.a(lib_a-puts.o)
                                        0x5be (size before relaxing)
 .debug_str     0x0000000000001866       0x5b ../neural_bsp//newlib/nios2-elf/lib\libc.a(lib_a-rand48.o)
                                        0x571 (size before relaxing)
 .debug_str     0x00000000000018c1       0x54 ../neural_bsp//newlib/nios2-elf/lib\libc.a(lib_a-realloc.o)
                                        0x56c (size before relaxing)
 .debug_str     0x0000000000001915       0x61 ../neural_bsp//newlib/nios2-elf/lib\libc.a(lib_a-reallocr.o)
                                        0x61b (size before relaxing)
 .debug_str     0x0000000000001976       0x5a ../neural_bsp//newlib/nios2-elf/lib\libc.a(lib_a-rget.o)
                                        0x579 (size before relaxing)
 .debug_str     0x00000000000019d0       0x50 ../neural_bsp//newlib/nios2-elf/lib\libc.a(lib_a-s_ldexp.o)
                                        0x1ab (size before relaxing)
 .debug_str     0x0000000000001a20       0x9c ../neural_bsp//newlib/nios2-elf/lib\libc.a(lib_a-s_scalbn.o)
                                        0x207 (size before relaxing)
 .debug_str     0x0000000000001abc       0x65 ../neural_bsp//newlib/nios2-elf/lib\libc.a(lib_a-sbrkr.o)
                                        0x569 (size before relaxing)
 .debug_str     0x0000000000001b21       0x5f ../neural_bsp//newlib/nios2-elf/lib\libc.a(lib_a-srand48.o)
                                        0x57b (size before relaxing)
 .debug_str     0x0000000000001b80       0x4b ../neural_bsp//newlib/nios2-elf/lib\libc.a(lib_a-strlen.o)
                                        0x1b4 (size before relaxing)
 .debug_str     0x0000000000001bcb       0x84 ../neural_bsp//newlib/nios2-elf/lib\libc.a(lib_a-strtol.o)
                                        0x598 (size before relaxing)
 .debug_str     0x0000000000001c4f       0x69 ../neural_bsp//newlib/nios2-elf/lib\libc.a(lib_a-time.o)
                                        0x580 (size before relaxing)
 .debug_str     0x0000000000001cb8      0x24c ../neural_bsp//newlib/nios2-elf/lib\libc.a(lib_a-vfprintf.o)
                                        0x7a0 (size before relaxing)
 .debug_str     0x0000000000001f04       0x56 ../neural_bsp//newlib/nios2-elf/lib\libc.a(lib_a-wsetup.o)
                                        0x575 (size before relaxing)
 .debug_str     0x0000000000001f5a       0x5b ../neural_bsp//newlib/nios2-elf/lib\libc.a(lib_a-ctype_.o)
                                        0x121 (size before relaxing)
 .debug_str     0x0000000000001fb5      0x112 ../neural_bsp//newlib/nios2-elf/lib\libc.a(lib_a-dtoa.o)
                                        0x64d (size before relaxing)
 .debug_str     0x00000000000020c7       0x51 ../neural_bsp//newlib/nios2-elf/lib\libc.a(lib_a-errno.o)
                                        0x55b (size before relaxing)
 .debug_str     0x0000000000002118       0x77 ../neural_bsp//newlib/nios2-elf/lib\libc.a(lib_a-fflush.o)
                                        0x5b6 (size before relaxing)
 .debug_str     0x000000000000218f      0x1a9 ../neural_bsp//newlib/nios2-elf/lib\libc.a(lib_a-findfp.o)
                                        0x6f3 (size before relaxing)
 .debug_str     0x0000000000002338       0x3c ../neural_bsp//newlib/nios2-elf/lib\libc.a(lib_a-freer.o)
                                        0x69b (size before relaxing)
 .debug_str     0x0000000000002374       0x6e ../neural_bsp//newlib/nios2-elf/lib\libc.a(lib_a-fvwrite.o)
                                        0x5bc (size before relaxing)
 .debug_str     0x00000000000023e2       0x6c ../neural_bsp//newlib/nios2-elf/lib\libc.a(lib_a-fwalk.o)
                                        0x578 (size before relaxing)
 .debug_str     0x000000000000244e       0x74 ../neural_bsp//newlib/nios2-elf/lib\libc.a(lib_a-gettimeofdayr.o)
                                        0x5a2 (size before relaxing)
 .debug_str     0x00000000000024c2       0x4d ../neural_bsp//newlib/nios2-elf/lib\libc.a(lib_a-int_errno.o)
                                        0x19b (size before relaxing)
 .debug_str     0x000000000000250f      0x226 ../neural_bsp//newlib/nios2-elf/lib\libc.a(lib_a-locale.o)
                                        0x7c8 (size before relaxing)
 .debug_str     0x0000000000002735       0xb8 ../neural_bsp//newlib/nios2-elf/lib\libc.a(lib_a-makebuf.o)
                                        0x658 (size before relaxing)
 .debug_str     0x00000000000027ed       0x60 ../neural_bsp//newlib/nios2-elf/lib\libc.a(lib_a-memchr.o)
                                        0x1bb (size before relaxing)
 .debug_str     0x000000000000284d       0x79 ../neural_bsp//newlib/nios2-elf/lib\libc.a(lib_a-memcpy.o)
                                        0x1c8 (size before relaxing)
 .debug_str     0x00000000000028c6       0x5d ../neural_bsp//newlib/nios2-elf/lib\libc.a(lib_a-memmove.o)
                                        0x1d4 (size before relaxing)
 .debug_str     0x0000000000002923      0x108 ../neural_bsp//newlib/nios2-elf/lib\libc.a(lib_a-mprec.o)
                                        0x65a (size before relaxing)
 .debug_str     0x0000000000002a2b       0x55 ../neural_bsp//newlib/nios2-elf/lib\libc.a(lib_a-putc.o)
                                        0x581 (size before relaxing)
 .debug_str     0x0000000000002a80       0x68 ../neural_bsp//newlib/nios2-elf/lib\libc.a(lib_a-refill.o)
                                        0x58e (size before relaxing)
 .debug_str     0x0000000000002ae8       0x58 ../neural_bsp//newlib/nios2-elf/lib\libc.a(lib_a-s_copysign.o)
                                        0x1e5 (size before relaxing)
 .debug_str     0x0000000000002b40       0x54 ../neural_bsp//newlib/nios2-elf/lib\libc.a(lib_a-s_finite.o)
                                        0x1e6 (size before relaxing)
 .debug_str     0x0000000000002b94       0x5f ../neural_bsp//newlib/nios2-elf/lib\libc.a(lib_a-s_fpclassify.o)
                                        0x1e7 (size before relaxing)
 .debug_str     0x0000000000002bf3       0x86 ../neural_bsp//newlib/nios2-elf/lib\libc.a(lib_a-stdio.o)
                                        0x5a4 (size before relaxing)
 .debug_str     0x0000000000002c79       0x52 ../neural_bsp//newlib/nios2-elf/lib\libc.a(lib_a-strcmp.o)
                                        0x19a (size before relaxing)
 .debug_str     0x0000000000002ccb       0x40 ../neural_bsp//newlib/nios2-elf/lib\libc.a(lib_a-vfiprintf.o)
                                        0x70c (size before relaxing)
 .debug_str     0x0000000000002d0b       0x5a ../neural_bsp//newlib/nios2-elf/lib\libc.a(lib_a-wbuf.o)
                                        0x579 (size before relaxing)
 .debug_str     0x0000000000002d65       0x53 ../neural_bsp//newlib/nios2-elf/lib\libc.a(lib_a-writer.o)
                                        0x567 (size before relaxing)
 .debug_str     0x0000000000002db8       0x53 ../neural_bsp//newlib/nios2-elf/lib\libc.a(closer.o)
                                        0x557 (size before relaxing)
 .debug_str     0x0000000000002e0b       0x5b ../neural_bsp//newlib/nios2-elf/lib\libc.a(lib_a-fclose.o)
                                        0x57f (size before relaxing)
 .debug_str     0x0000000000002e66       0x5d ../neural_bsp//newlib/nios2-elf/lib\libc.a(lib_a-fputwc.o)
                                        0x593 (size before relaxing)
 .debug_str     0x0000000000002ec3       0x59 ../neural_bsp//newlib/nios2-elf/lib\libc.a(lib_a-fstatr.o)
                                        0x643 (size before relaxing)
 .debug_str     0x0000000000002f1c       0x55 ../neural_bsp//newlib/nios2-elf/lib\libc.a(lib_a-isattyr.o)
                                        0x559 (size before relaxing)
 .debug_str     0x0000000000002f71       0x53 ../neural_bsp//newlib/nios2-elf/lib\libc.a(lib_a-lseekr.o)
                                        0x55e (size before relaxing)
 .debug_str     0x0000000000002fc4       0x51 ../neural_bsp//newlib/nios2-elf/lib\libc.a(lib_a-readr.o)
                                        0x565 (size before relaxing)
 .debug_str     0x0000000000003015       0x6f ../neural_bsp//newlib/nios2-elf/lib\libc.a(lib_a-wcrtomb.o)
                                        0x598 (size before relaxing)
 .debug_str     0x0000000000003084       0x6d ../neural_bsp//newlib/nios2-elf/lib\libc.a(lib_a-wctomb_r.o)
                                        0x5a1 (size before relaxing)
 .debug_str     0x00000000000030f1       0xd8 c:/altera/16.0/nios2eds/bin/gnu/h-x86_64-mingw32/bin/../lib/gcc/nios2-elf/5.2.0/mno-hw-mul\libgcc.a(_udivdi3.o)
                                        0x29c (size before relaxing)
 .debug_str     0x00000000000031c9        0xa c:/altera/16.0/nios2eds/bin/gnu/h-x86_64-mingw32/bin/../lib/gcc/nios2-elf/5.2.0/mno-hw-mul\libgcc.a(_umoddi3.o)
                                        0x29c (size before relaxing)
 .debug_str     0x00000000000031d3       0x37 c:/altera/16.0/nios2eds/bin/gnu/h-x86_64-mingw32/bin/../lib/gcc/nios2-elf/5.2.0/mno-hw-mul\libgcc.a(eqdf2.o)
                                        0x20f (size before relaxing)
 .debug_str     0x000000000000320a       0x37 c:/altera/16.0/nios2eds/bin/gnu/h-x86_64-mingw32/bin/../lib/gcc/nios2-elf/5.2.0/mno-hw-mul\libgcc.a(gedf2.o)
                                        0x233 (size before relaxing)
 .debug_str     0x0000000000003241       0x3b c:/altera/16.0/nios2eds/bin/gnu/h-x86_64-mingw32/bin/../lib/gcc/nios2-elf/5.2.0/mno-hw-mul\libgcc.a(fixdfsi.o)
                                        0x22b (size before relaxing)
 .debug_str     0x000000000000327c       0x3f c:/altera/16.0/nios2eds/bin/gnu/h-x86_64-mingw32/bin/../lib/gcc/nios2-elf/5.2.0/mno-hw-mul\libgcc.a(floatsidf.o)
                                        0x242 (size before relaxing)
 .debug_str     0x00000000000032bb       0x43 c:/altera/16.0/nios2eds/bin/gnu/h-x86_64-mingw32/bin/../lib/gcc/nios2-elf/5.2.0/mno-hw-mul\libgcc.a(floatunsidf.o)
                                        0x23f (size before relaxing)
 .debug_str     0x00000000000032fe      0x135 ../neural_bsp/\libhal_bsp.a(alt_close.o)
                                        0x20b (size before relaxing)
 .debug_str     0x0000000000003433       0x50 ../neural_bsp/\libhal_bsp.a(alt_dev.o)
                                        0x305 (size before relaxing)
 .debug_str     0x0000000000003483       0x14 ../neural_bsp/\libhal_bsp.a(alt_errno.o)
                                        0x145 (size before relaxing)
 .debug_str     0x0000000000003497       0x14 ../neural_bsp/\libhal_bsp.a(alt_fstat.o)
                                        0x2ec (size before relaxing)
 .debug_str     0x00000000000034ab       0xa6 ../neural_bsp/\libhal_bsp.a(alt_gettod.o)
                                        0x229 (size before relaxing)
 .debug_str     0x0000000000003551       0x1c ../neural_bsp/\libhal_bsp.a(alt_isatty.o)
                                        0x2f4 (size before relaxing)
 .debug_str     0x000000000000356d       0xe9 ../neural_bsp/\libhal_bsp.a(alt_load.o)
                                        0x212 (size before relaxing)
 .debug_str     0x0000000000003656       0x14 ../neural_bsp/\libhal_bsp.a(alt_lseek.o)
                                        0x211 (size before relaxing)
 .debug_str     0x000000000000366a       0x44 ../neural_bsp/\libhal_bsp.a(alt_main.o)
                                        0x19d (size before relaxing)
 .debug_str     0x00000000000036ae       0x38 ../neural_bsp/\libhal_bsp.a(alt_malloc_lock.o)
                                        0x50f (size before relaxing)
 .debug_str     0x00000000000036e6       0x13 ../neural_bsp/\libhal_bsp.a(alt_read.o)
                                        0x2f7 (size before relaxing)
 .debug_str     0x00000000000036f9       0x28 ../neural_bsp/\libhal_bsp.a(alt_release_fd.o)
                                        0x1d3 (size before relaxing)
 .debug_str     0x0000000000003721       0x98 ../neural_bsp/\libhal_bsp.a(alt_sbrk.o)
                                        0x1d4 (size before relaxing)
 .debug_str     0x00000000000037b9       0x78 ../neural_bsp/\libhal_bsp.a(alt_tick.o)
                                        0x252 (size before relaxing)
 .debug_str     0x0000000000003831       0x14 ../neural_bsp/\libhal_bsp.a(alt_write.o)
                                        0x2f8 (size before relaxing)
 .debug_str     0x0000000000003845      0x143 ../neural_bsp/\libhal_bsp.a(alt_sys_init.o)
                                        0x387 (size before relaxing)
 .debug_str     0x0000000000003988       0xac ../neural_bsp/\libhal_bsp.a(altera_avalon_jtag_uart_fd.o)
                                        0x3a4 (size before relaxing)
 .debug_str     0x0000000000003a34       0xbc ../neural_bsp/\libhal_bsp.a(altera_avalon_jtag_uart_init.o)
                                        0x338 (size before relaxing)
 .debug_str     0x0000000000003af0       0x4a ../neural_bsp/\libhal_bsp.a(altera_avalon_jtag_uart_ioctl.o)
                                        0x293 (size before relaxing)
 .debug_str     0x0000000000003b3a       0x48 ../neural_bsp/\libhal_bsp.a(altera_avalon_jtag_uart_read.o)
                                        0x2e8 (size before relaxing)
 .debug_str     0x0000000000003b82       0x4a ../neural_bsp/\libhal_bsp.a(altera_avalon_jtag_uart_write.o)
                                        0x2e9 (size before relaxing)
 .debug_str     0x0000000000003bcc      0x135 ../neural_bsp/\libhal_bsp.a(altera_hostfs.o)
                                        0x43a (size before relaxing)
 .debug_str     0x0000000000003d01       0x4a ../neural_bsp/\libhal_bsp.a(alt_alarm_start.o)
                                        0x27e (size before relaxing)
 .debug_str     0x0000000000003d4b       0x34 ../neural_bsp/\libhal_bsp.a(alt_dcache_flush_all.o)
                                        0x155 (size before relaxing)
 .debug_str     0x0000000000003d7f       0x34 ../neural_bsp/\libhal_bsp.a(alt_dev_llist_insert.o)
                                        0x1cc (size before relaxing)
 .debug_str     0x0000000000003db3       0x48 ../neural_bsp/\libhal_bsp.a(alt_do_ctors.o)
                                         0xd0 (size before relaxing)
 .debug_str     0x0000000000003dfb       0x4c ../neural_bsp/\libhal_bsp.a(alt_do_dtors.o)
                                         0xcf (size before relaxing)
 .debug_str     0x0000000000003e47       0x20 ../neural_bsp/\libhal_bsp.a(alt_fs_reg.o)
                                        0x209 (size before relaxing)
 .debug_str     0x0000000000003e67       0x34 ../neural_bsp/\libhal_bsp.a(alt_icache_flush_all.o)
                                        0x155 (size before relaxing)
 .debug_str     0x0000000000003e9b       0xc4 ../neural_bsp/\libhal_bsp.a(alt_iic.o)
                                        0x23e (size before relaxing)
 .debug_str     0x0000000000003f5f       0x4c ../neural_bsp/\libhal_bsp.a(alt_iic_isr_register.o)
                                        0x1e8 (size before relaxing)
 .debug_str     0x0000000000003fab       0x56 ../neural_bsp/\libhal_bsp.a(alt_io_redirect.o)
                                        0x316 (size before relaxing)
 .debug_str     0x0000000000004001       0x3a ../neural_bsp/\libhal_bsp.a(alt_irq_handler.o)
                                        0x197 (size before relaxing)
 .debug_str     0x000000000000403b       0x17 ../neural_bsp/\libhal_bsp.a(alt_irq_vars.o)
                                        0x13a (size before relaxing)
 .debug_str     0x0000000000004052       0x29 ../neural_bsp/\libhal_bsp.a(alt_open.o)
                                        0x24b (size before relaxing)
 .debug_str     0x000000000000407b       0x3b ../neural_bsp/\libhal_bsp.a(altera_nios2_gen2_irq.o)
                                        0x15c (size before relaxing)
 .debug_str     0x00000000000040b6       0x24 ../neural_bsp/\libhal_bsp.a(alt_find_dev.o)
                                        0x1ec (size before relaxing)
 .debug_str     0x00000000000040da       0x26 ../neural_bsp/\libhal_bsp.a(alt_find_file.o)
                                        0x1fa (size before relaxing)
 .debug_str     0x0000000000004100       0x30 ../neural_bsp/\libhal_bsp.a(alt_get_fd.o)
                                        0x21c (size before relaxing)
 .debug_str     0x0000000000004130      0x48b ../neural_bsp/\libhal_bsp.a(alt_instruction_exception_entry.o)
                                        0x5a0 (size before relaxing)
 .debug_str     0x00000000000045bb       0x7b ../neural_bsp//newlib/nios2-elf/lib\libc.a(lib_a-atexit.o)
                                        0x1ca (size before relaxing)
 .debug_str     0x0000000000004636       0x49 ../neural_bsp//newlib/nios2-elf/lib\libc.a(lib_a-exit.o)
                                        0x564 (size before relaxing)
 .debug_str     0x000000000000467f       0x52 ../neural_bsp//newlib/nios2-elf/lib\libc.a(lib_a-memcmp.o)
                                        0x1a1 (size before relaxing)
 .debug_str     0x00000000000046d1       0x61 ../neural_bsp//newlib/nios2-elf/lib\libc.a(lib_a-__atexit.o)
                                        0x5ac (size before relaxing)
 .debug_str     0x0000000000004732       0x7f ../neural_bsp//newlib/nios2-elf/lib\libc.a(lib_a-__call_atexit.o)
                                        0x59a (size before relaxing)
 .debug_str     0x00000000000047b1        0x9 c:/altera/16.0/nios2eds/bin/gnu/h-x86_64-mingw32/bin/../lib/gcc/nios2-elf/5.2.0/mno-hw-mul\libgcc.a(_muldi3.o)
                                        0x225 (size before relaxing)
 .debug_str     0x00000000000047ba       0x2a ../neural_bsp/\libhal_bsp.a(alt_exit.o)
                                        0x151 (size before relaxing)

.debug_loc      0x0000000000000000     0xbb43
 *(.debug_loc)
 .debug_loc     0x0000000000000000       0x23 c:/altera/16.0/nios2eds/bin/gnu/h-x86_64-mingw32/bin/../lib/gcc/nios2-elf/5.2.0/mno-hw-mul\libgcc.a(_fixunssfsi.o)
 .debug_loc     0x0000000000000023      0x4ae c:/altera/16.0/nios2eds/bin/gnu/h-x86_64-mingw32/bin/../lib/gcc/nios2-elf/5.2.0/mno-hw-mul\libgcc.a(lib2-divmod.o)
 .debug_loc     0x00000000000004d1      0xae0 c:/altera/16.0/nios2eds/bin/gnu/h-x86_64-mingw32/bin/../lib/gcc/nios2-elf/5.2.0/mno-hw-mul\libgcc.a(addsf3.o)
 .debug_loc     0x0000000000000fb1      0x787 c:/altera/16.0/nios2eds/bin/gnu/h-x86_64-mingw32/bin/../lib/gcc/nios2-elf/5.2.0/mno-hw-mul\libgcc.a(divsf3.o)
 .debug_loc     0x0000000000001738       0xae c:/altera/16.0/nios2eds/bin/gnu/h-x86_64-mingw32/bin/../lib/gcc/nios2-elf/5.2.0/mno-hw-mul\libgcc.a(eqsf2.o)
 .debug_loc     0x00000000000017e6      0x13f c:/altera/16.0/nios2eds/bin/gnu/h-x86_64-mingw32/bin/../lib/gcc/nios2-elf/5.2.0/mno-hw-mul\libgcc.a(gesf2.o)
 .debug_loc     0x0000000000001925      0x192 c:/altera/16.0/nios2eds/bin/gnu/h-x86_64-mingw32/bin/../lib/gcc/nios2-elf/5.2.0/mno-hw-mul\libgcc.a(lesf2.o)
 .debug_loc     0x0000000000001ab7      0x712 c:/altera/16.0/nios2eds/bin/gnu/h-x86_64-mingw32/bin/../lib/gcc/nios2-elf/5.2.0/mno-hw-mul\libgcc.a(mulsf3.o)
 .debug_loc     0x00000000000021c9      0xaf4 c:/altera/16.0/nios2eds/bin/gnu/h-x86_64-mingw32/bin/../lib/gcc/nios2-elf/5.2.0/mno-hw-mul\libgcc.a(subsf3.o)
 .debug_loc     0x0000000000002cbd       0xc3 c:/altera/16.0/nios2eds/bin/gnu/h-x86_64-mingw32/bin/../lib/gcc/nios2-elf/5.2.0/mno-hw-mul\libgcc.a(fixsfsi.o)
 .debug_loc     0x0000000000002d80      0x187 c:/altera/16.0/nios2eds/bin/gnu/h-x86_64-mingw32/bin/../lib/gcc/nios2-elf/5.2.0/mno-hw-mul\libgcc.a(floatsisf.o)
 .debug_loc     0x0000000000002f07      0x1b2 c:/altera/16.0/nios2eds/bin/gnu/h-x86_64-mingw32/bin/../lib/gcc/nios2-elf/5.2.0/mno-hw-mul\libgcc.a(floatunsisf.o)
 .debug_loc     0x00000000000030b9     0x16f9 c:/altera/16.0/nios2eds/bin/gnu/h-x86_64-mingw32/bin/../lib/gcc/nios2-elf/5.2.0/mno-hw-mul\libgcc.a(adddf3.o)
 .debug_loc     0x00000000000047b2     0x1c15 c:/altera/16.0/nios2eds/bin/gnu/h-x86_64-mingw32/bin/../lib/gcc/nios2-elf/5.2.0/mno-hw-mul\libgcc.a(divdf3.o)
 .debug_loc     0x00000000000063c7      0x163 c:/altera/16.0/nios2eds/bin/gnu/h-x86_64-mingw32/bin/../lib/gcc/nios2-elf/5.2.0/mno-hw-mul\libgcc.a(ledf2.o)
 .debug_loc     0x000000000000652a     0x10a0 c:/altera/16.0/nios2eds/bin/gnu/h-x86_64-mingw32/bin/../lib/gcc/nios2-elf/5.2.0/mno-hw-mul\libgcc.a(muldf3.o)
 .debug_loc     0x00000000000075ca     0x1627 c:/altera/16.0/nios2eds/bin/gnu/h-x86_64-mingw32/bin/../lib/gcc/nios2-elf/5.2.0/mno-hw-mul\libgcc.a(subdf3.o)
 .debug_loc     0x0000000000008bf1      0x26d c:/altera/16.0/nios2eds/bin/gnu/h-x86_64-mingw32/bin/../lib/gcc/nios2-elf/5.2.0/mno-hw-mul\libgcc.a(extendsfdf2.o)
 .debug_loc     0x0000000000008e5e      0x359 c:/altera/16.0/nios2eds/bin/gnu/h-x86_64-mingw32/bin/../lib/gcc/nios2-elf/5.2.0/mno-hw-mul\libgcc.a(truncdfsf2.o)
 .debug_loc     0x00000000000091b7       0x6b c:/altera/16.0/nios2eds/bin/gnu/h-x86_64-mingw32/bin/../lib/gcc/nios2-elf/5.2.0/mno-hw-mul\libgcc.a(_clzsi2.o)
 .debug_loc     0x0000000000009222       0x93 c:/altera/16.0/nios2eds/bin/gnu/h-x86_64-mingw32/bin/../lib/gcc/nios2-elf/5.2.0/mno-hw-mul\libgcc.a(lib2-mul.o)
 .debug_loc     0x00000000000092b5     0x10f0 c:/altera/16.0/nios2eds/bin/gnu/h-x86_64-mingw32/bin/../lib/gcc/nios2-elf/5.2.0/mno-hw-mul\libgcc.a(_udivdi3.o)
 .debug_loc     0x000000000000a3a5     0x10ac c:/altera/16.0/nios2eds/bin/gnu/h-x86_64-mingw32/bin/../lib/gcc/nios2-elf/5.2.0/mno-hw-mul\libgcc.a(_umoddi3.o)
 .debug_loc     0x000000000000b451       0x68 c:/altera/16.0/nios2eds/bin/gnu/h-x86_64-mingw32/bin/../lib/gcc/nios2-elf/5.2.0/mno-hw-mul\libgcc.a(eqdf2.o)
 .debug_loc     0x000000000000b4b9       0xf9 c:/altera/16.0/nios2eds/bin/gnu/h-x86_64-mingw32/bin/../lib/gcc/nios2-elf/5.2.0/mno-hw-mul\libgcc.a(gedf2.o)
 .debug_loc     0x000000000000b5b2      0x121 c:/altera/16.0/nios2eds/bin/gnu/h-x86_64-mingw32/bin/../lib/gcc/nios2-elf/5.2.0/mno-hw-mul\libgcc.a(fixdfsi.o)
 .debug_loc     0x000000000000b6d3      0x175 c:/altera/16.0/nios2eds/bin/gnu/h-x86_64-mingw32/bin/../lib/gcc/nios2-elf/5.2.0/mno-hw-mul\libgcc.a(floatsidf.o)
 .debug_loc     0x000000000000b848      0x19e c:/altera/16.0/nios2eds/bin/gnu/h-x86_64-mingw32/bin/../lib/gcc/nios2-elf/5.2.0/mno-hw-mul\libgcc.a(floatunsidf.o)
 .debug_loc     0x000000000000b9e6      0x15d c:/altera/16.0/nios2eds/bin/gnu/h-x86_64-mingw32/bin/../lib/gcc/nios2-elf/5.2.0/mno-hw-mul\libgcc.a(_muldi3.o)

.debug_macinfo
 *(.debug_macinfo)

.debug_weaknames
 *(.debug_weaknames)

.debug_funcnames
 *(.debug_funcnames)

.debug_typenames
 *(.debug_typenames)

.debug_varnames
 *(.debug_varnames)

.debug_alt_sim_info
                0x0000000000000000       0x10
 *(.debug_alt_sim_info)
 .debug_alt_sim_info
                0x0000000000000000       0x10 ../neural_bsp//obj/HAL/src/crt0.o
                0x0000000018000000                __alt_data_end = 0x18000000
                0x0000000018000000                PROVIDE (__alt_stack_pointer, __alt_data_end)
                [!provide]                        PROVIDE (__alt_stack_limit, __alt_stack_base)
                0x00000000100e2e54                PROVIDE (__alt_heap_start, end)
                0x0000000018000000                PROVIDE (__alt_heap_limit, 0x18000000)
OUTPUT(neural.elf elf32-littlenios2)

.debug_ranges   0x0000000000000000     0x1b20
 .debug_ranges  0x0000000000000000       0x20 ../neural_bsp//obj/HAL/src/crt0.o
 .debug_ranges  0x0000000000000020       0x60 c:/altera/16.0/nios2eds/bin/gnu/h-x86_64-mingw32/bin/../lib/gcc/nios2-elf/5.2.0/mno-hw-mul\libgcc.a(lib2-divmod.o)
 .debug_ranges  0x0000000000000080      0x188 c:/altera/16.0/nios2eds/bin/gnu/h-x86_64-mingw32/bin/../lib/gcc/nios2-elf/5.2.0/mno-hw-mul\libgcc.a(addsf3.o)
 .debug_ranges  0x0000000000000208       0x58 c:/altera/16.0/nios2eds/bin/gnu/h-x86_64-mingw32/bin/../lib/gcc/nios2-elf/5.2.0/mno-hw-mul\libgcc.a(divsf3.o)
 .debug_ranges  0x0000000000000260       0x48 c:/altera/16.0/nios2eds/bin/gnu/h-x86_64-mingw32/bin/../lib/gcc/nios2-elf/5.2.0/mno-hw-mul\libgcc.a(eqsf2.o)
 .debug_ranges  0x00000000000002a8       0x88 c:/altera/16.0/nios2eds/bin/gnu/h-x86_64-mingw32/bin/../lib/gcc/nios2-elf/5.2.0/mno-hw-mul\libgcc.a(gesf2.o)
 .debug_ranges  0x0000000000000330       0xa0 c:/altera/16.0/nios2eds/bin/gnu/h-x86_64-mingw32/bin/../lib/gcc/nios2-elf/5.2.0/mno-hw-mul\libgcc.a(lesf2.o)
 .debug_ranges  0x00000000000003d0       0x68 c:/altera/16.0/nios2eds/bin/gnu/h-x86_64-mingw32/bin/../lib/gcc/nios2-elf/5.2.0/mno-hw-mul\libgcc.a(mulsf3.o)
 .debug_ranges  0x0000000000000438      0x178 c:/altera/16.0/nios2eds/bin/gnu/h-x86_64-mingw32/bin/../lib/gcc/nios2-elf/5.2.0/mno-hw-mul\libgcc.a(subsf3.o)
 .debug_ranges  0x00000000000005b0       0x30 c:/altera/16.0/nios2eds/bin/gnu/h-x86_64-mingw32/bin/../lib/gcc/nios2-elf/5.2.0/mno-hw-mul\libgcc.a(fixsfsi.o)
 .debug_ranges  0x00000000000005e0       0x38 c:/altera/16.0/nios2eds/bin/gnu/h-x86_64-mingw32/bin/../lib/gcc/nios2-elf/5.2.0/mno-hw-mul\libgcc.a(floatsisf.o)
 .debug_ranges  0x0000000000000618       0x38 c:/altera/16.0/nios2eds/bin/gnu/h-x86_64-mingw32/bin/../lib/gcc/nios2-elf/5.2.0/mno-hw-mul\libgcc.a(floatunsisf.o)
 .debug_ranges  0x0000000000000650      0x240 c:/altera/16.0/nios2eds/bin/gnu/h-x86_64-mingw32/bin/../lib/gcc/nios2-elf/5.2.0/mno-hw-mul\libgcc.a(adddf3.o)
 .debug_ranges  0x0000000000000890      0x158 c:/altera/16.0/nios2eds/bin/gnu/h-x86_64-mingw32/bin/../lib/gcc/nios2-elf/5.2.0/mno-hw-mul\libgcc.a(divdf3.o)
 .debug_ranges  0x00000000000009e8       0xa8 c:/altera/16.0/nios2eds/bin/gnu/h-x86_64-mingw32/bin/../lib/gcc/nios2-elf/5.2.0/mno-hw-mul\libgcc.a(ledf2.o)
 .debug_ranges  0x0000000000000a90      0x1d0 c:/altera/16.0/nios2eds/bin/gnu/h-x86_64-mingw32/bin/../lib/gcc/nios2-elf/5.2.0/mno-hw-mul\libgcc.a(muldf3.o)
 .debug_ranges  0x0000000000000c60      0x268 c:/altera/16.0/nios2eds/bin/gnu/h-x86_64-mingw32/bin/../lib/gcc/nios2-elf/5.2.0/mno-hw-mul\libgcc.a(subdf3.o)
 .debug_ranges  0x0000000000000ec8       0x48 c:/altera/16.0/nios2eds/bin/gnu/h-x86_64-mingw32/bin/../lib/gcc/nios2-elf/5.2.0/mno-hw-mul\libgcc.a(extendsfdf2.o)
 .debug_ranges  0x0000000000000f10       0x38 c:/altera/16.0/nios2eds/bin/gnu/h-x86_64-mingw32/bin/../lib/gcc/nios2-elf/5.2.0/mno-hw-mul\libgcc.a(truncdfsf2.o)
 .debug_ranges  0x0000000000000f48       0x18 c:/altera/16.0/nios2eds/bin/gnu/h-x86_64-mingw32/bin/../lib/gcc/nios2-elf/5.2.0/mno-hw-mul\libgcc.a(_clzsi2.o)
 .debug_ranges  0x0000000000000f60       0x18 ../neural_bsp//newlib/nios2-elf/lib\libc.a(lib_a-atoi.o)
 .debug_ranges  0x0000000000000f78       0x10 ../neural_bsp//newlib/nios2-elf/lib\libc.a(lib_a-calloc.o)
 .debug_ranges  0x0000000000000f88       0x10 ../neural_bsp//newlib/nios2-elf/lib\libc.a(lib_a-callocr.o)
 .debug_ranges  0x0000000000000f98       0x18 ../neural_bsp//newlib/nios2-elf/lib\libc.a(lib_a-drand48.o)
 .debug_ranges  0x0000000000000fb0       0x18 ../neural_bsp//newlib/nios2-elf/lib\libc.a(lib_a-erand48.o)
 .debug_ranges  0x0000000000000fc8       0x18 ../neural_bsp//newlib/nios2-elf/lib\libc.a(lib_a-getc.o)
 .debug_ranges  0x0000000000000fe0       0x18 ../neural_bsp//newlib/nios2-elf/lib\libc.a(lib_a-malloc.o)
 .debug_ranges  0x0000000000000ff8       0x18 ../neural_bsp//newlib/nios2-elf/lib\libc.a(lib_a-mallocr.o)
 .debug_ranges  0x0000000000001010       0x10 ../neural_bsp//newlib/nios2-elf/lib\libc.a(lib_a-memset.o)
 .debug_ranges  0x0000000000001020       0x18 ../neural_bsp//newlib/nios2-elf/lib\libc.a(lib_a-printf.o)
 .debug_ranges  0x0000000000001038       0x18 ../neural_bsp//newlib/nios2-elf/lib\libc.a(lib_a-putchar.o)
 .debug_ranges  0x0000000000001050       0x18 ../neural_bsp//newlib/nios2-elf/lib\libc.a(lib_a-puts.o)
 .debug_ranges  0x0000000000001068       0x10 ../neural_bsp//newlib/nios2-elf/lib\libc.a(lib_a-rand48.o)
 .debug_ranges  0x0000000000001078       0x10 ../neural_bsp//newlib/nios2-elf/lib\libc.a(lib_a-realloc.o)
 .debug_ranges  0x0000000000001088       0x40 ../neural_bsp//newlib/nios2-elf/lib\libc.a(lib_a-reallocr.o)
 .debug_ranges  0x00000000000010c8       0x18 ../neural_bsp//newlib/nios2-elf/lib\libc.a(lib_a-rget.o)
 .debug_ranges  0x00000000000010e0       0x10 ../neural_bsp//newlib/nios2-elf/lib\libc.a(lib_a-s_ldexp.o)
 .debug_ranges  0x00000000000010f0       0x10 ../neural_bsp//newlib/nios2-elf/lib\libc.a(lib_a-s_scalbn.o)
 .debug_ranges  0x0000000000001100       0x10 ../neural_bsp//newlib/nios2-elf/lib\libc.a(lib_a-sbrkr.o)
 .debug_ranges  0x0000000000001110       0x18 ../neural_bsp//newlib/nios2-elf/lib\libc.a(lib_a-srand48.o)
 .debug_ranges  0x0000000000001128       0x10 ../neural_bsp//newlib/nios2-elf/lib\libc.a(lib_a-strlen.o)
 .debug_ranges  0x0000000000001138       0x18 ../neural_bsp//newlib/nios2-elf/lib\libc.a(lib_a-strtol.o)
 .debug_ranges  0x0000000000001150       0x10 ../neural_bsp//newlib/nios2-elf/lib\libc.a(lib_a-time.o)
 .debug_ranges  0x0000000000001160       0x90 ../neural_bsp//newlib/nios2-elf/lib\libc.a(lib_a-vfprintf.o)
 .debug_ranges  0x00000000000011f0       0x10 ../neural_bsp//newlib/nios2-elf/lib\libc.a(lib_a-wsetup.o)
 .debug_ranges  0x0000000000001200       0x18 ../neural_bsp//newlib/nios2-elf/lib\libc.a(lib_a-dtoa.o)
 .debug_ranges  0x0000000000001218       0x10 ../neural_bsp//newlib/nios2-elf/lib\libc.a(lib_a-errno.o)
 .debug_ranges  0x0000000000001228       0x20 ../neural_bsp//newlib/nios2-elf/lib\libc.a(lib_a-fflush.o)
 .debug_ranges  0x0000000000001248       0x78 ../neural_bsp//newlib/nios2-elf/lib\libc.a(lib_a-findfp.o)
 .debug_ranges  0x00000000000012c0       0x18 ../neural_bsp//newlib/nios2-elf/lib\libc.a(lib_a-freer.o)
 .debug_ranges  0x00000000000012d8       0x10 ../neural_bsp//newlib/nios2-elf/lib\libc.a(lib_a-fvwrite.o)
 .debug_ranges  0x00000000000012e8       0x18 ../neural_bsp//newlib/nios2-elf/lib\libc.a(lib_a-fwalk.o)
 .debug_ranges  0x0000000000001300       0x10 ../neural_bsp//newlib/nios2-elf/lib\libc.a(lib_a-gettimeofdayr.o)
 .debug_ranges  0x0000000000001310       0x48 ../neural_bsp//newlib/nios2-elf/lib\libc.a(lib_a-locale.o)
 .debug_ranges  0x0000000000001358       0x10 ../neural_bsp//newlib/nios2-elf/lib\libc.a(lib_a-makebuf.o)
 .debug_ranges  0x0000000000001368       0x10 ../neural_bsp//newlib/nios2-elf/lib\libc.a(lib_a-memchr.o)
 .debug_ranges  0x0000000000001378       0x10 ../neural_bsp//newlib/nios2-elf/lib\libc.a(lib_a-memcpy.o)
 .debug_ranges  0x0000000000001388       0x10 ../neural_bsp//newlib/nios2-elf/lib\libc.a(lib_a-memmove.o)
 .debug_ranges  0x0000000000001398       0xa0 ../neural_bsp//newlib/nios2-elf/lib\libc.a(lib_a-mprec.o)
 .debug_ranges  0x0000000000001438       0x18 ../neural_bsp//newlib/nios2-elf/lib\libc.a(lib_a-putc.o)
 .debug_ranges  0x0000000000001450       0x18 ../neural_bsp//newlib/nios2-elf/lib\libc.a(lib_a-refill.o)
 .debug_ranges  0x0000000000001468       0x10 ../neural_bsp//newlib/nios2-elf/lib\libc.a(lib_a-s_copysign.o)
 .debug_ranges  0x0000000000001478       0x10 ../neural_bsp//newlib/nios2-elf/lib\libc.a(lib_a-s_finite.o)
 .debug_ranges  0x0000000000001488       0x10 ../neural_bsp//newlib/nios2-elf/lib\libc.a(lib_a-s_fpclassify.o)
 .debug_ranges  0x0000000000001498       0x30 ../neural_bsp//newlib/nios2-elf/lib\libc.a(lib_a-stdio.o)
 .debug_ranges  0x00000000000014c8       0x10 ../neural_bsp//newlib/nios2-elf/lib\libc.a(lib_a-strcmp.o)
 .debug_ranges  0x00000000000014d8       0x40 ../neural_bsp//newlib/nios2-elf/lib\libc.a(lib_a-vfiprintf.o)
 .debug_ranges  0x0000000000001518       0x18 ../neural_bsp//newlib/nios2-elf/lib\libc.a(lib_a-wbuf.o)
 .debug_ranges  0x0000000000001530       0x10 ../neural_bsp//newlib/nios2-elf/lib\libc.a(lib_a-writer.o)
 .debug_ranges  0x0000000000001540       0x10 ../neural_bsp//newlib/nios2-elf/lib\libc.a(closer.o)
 .debug_ranges  0x0000000000001550       0x18 ../neural_bsp//newlib/nios2-elf/lib\libc.a(lib_a-fclose.o)
 .debug_ranges  0x0000000000001568       0x20 ../neural_bsp//newlib/nios2-elf/lib\libc.a(lib_a-fputwc.o)
 .debug_ranges  0x0000000000001588       0x10 ../neural_bsp//newlib/nios2-elf/lib\libc.a(lib_a-fstatr.o)
 .debug_ranges  0x0000000000001598       0x10 ../neural_bsp//newlib/nios2-elf/lib\libc.a(lib_a-isattyr.o)
 .debug_ranges  0x00000000000015a8       0x10 ../neural_bsp//newlib/nios2-elf/lib\libc.a(lib_a-lseekr.o)
 .debug_ranges  0x00000000000015b8       0x10 ../neural_bsp//newlib/nios2-elf/lib\libc.a(lib_a-readr.o)
 .debug_ranges  0x00000000000015c8       0x18 ../neural_bsp//newlib/nios2-elf/lib\libc.a(lib_a-wcrtomb.o)
 .debug_ranges  0x00000000000015e0       0x18 ../neural_bsp//newlib/nios2-elf/lib\libc.a(lib_a-wctomb_r.o)
 .debug_ranges  0x00000000000015f8      0x148 c:/altera/16.0/nios2eds/bin/gnu/h-x86_64-mingw32/bin/../lib/gcc/nios2-elf/5.2.0/mno-hw-mul\libgcc.a(_udivdi3.o)
 .debug_ranges  0x0000000000001740      0x160 c:/altera/16.0/nios2eds/bin/gnu/h-x86_64-mingw32/bin/../lib/gcc/nios2-elf/5.2.0/mno-hw-mul\libgcc.a(_umoddi3.o)
 .debug_ranges  0x00000000000018a0       0x48 c:/altera/16.0/nios2eds/bin/gnu/h-x86_64-mingw32/bin/../lib/gcc/nios2-elf/5.2.0/mno-hw-mul\libgcc.a(eqdf2.o)
 .debug_ranges  0x00000000000018e8       0x88 c:/altera/16.0/nios2eds/bin/gnu/h-x86_64-mingw32/bin/../lib/gcc/nios2-elf/5.2.0/mno-hw-mul\libgcc.a(gedf2.o)
 .debug_ranges  0x0000000000001970       0x30 c:/altera/16.0/nios2eds/bin/gnu/h-x86_64-mingw32/bin/../lib/gcc/nios2-elf/5.2.0/mno-hw-mul\libgcc.a(fixdfsi.o)
 .debug_ranges  0x00000000000019a0       0x20 c:/altera/16.0/nios2eds/bin/gnu/h-x86_64-mingw32/bin/../lib/gcc/nios2-elf/5.2.0/mno-hw-mul\libgcc.a(floatsidf.o)
 .debug_ranges  0x00000000000019c0       0x18 c:/altera/16.0/nios2eds/bin/gnu/h-x86_64-mingw32/bin/../lib/gcc/nios2-elf/5.2.0/mno-hw-mul\libgcc.a(floatunsidf.o)
 .debug_ranges  0x00000000000019d8       0x30 ../neural_bsp/\libhal_bsp.a(altera_avalon_jtag_uart_init.o)
 .debug_ranges  0x0000000000001a08       0x18 ../neural_bsp/\libhal_bsp.a(altera_avalon_jtag_uart_read.o)
 .debug_ranges  0x0000000000001a20       0x28 ../neural_bsp/\libhal_bsp.a(alt_irq_entry.o)
 .debug_ranges  0x0000000000001a48       0x10 ../neural_bsp/\libhal_bsp.a(alt_irq_handler.o)
 .debug_ranges  0x0000000000001a58       0x30 ../neural_bsp/\libhal_bsp.a(alt_exception_entry.o)
 .debug_ranges  0x0000000000001a88       0x18 ../neural_bsp/\libhal_bsp.a(alt_instruction_exception_entry.o)
 .debug_ranges  0x0000000000001aa0       0x10 ../neural_bsp//newlib/nios2-elf/lib\libc.a(lib_a-atexit.o)
 .debug_ranges  0x0000000000001ab0       0x10 ../neural_bsp//newlib/nios2-elf/lib\libc.a(lib_a-exit.o)
 .debug_ranges  0x0000000000001ac0       0x10 ../neural_bsp//newlib/nios2-elf/lib\libc.a(lib_a-memcmp.o)
 .debug_ranges  0x0000000000001ad0       0x10 ../neural_bsp//newlib/nios2-elf/lib\libc.a(lib_a-__atexit.o)
 .debug_ranges  0x0000000000001ae0       0x10 ../neural_bsp//newlib/nios2-elf/lib\libc.a(lib_a-__call_atexit.o)
 .debug_ranges  0x0000000000001af0       0x30 c:/altera/16.0/nios2eds/bin/gnu/h-x86_64-mingw32/bin/../lib/gcc/nios2-elf/5.2.0/mno-hw-mul\libgcc.a(_muldi3.o)
